ccopy_reg
_reconstructor
p0
(cFWCore.ParameterSet.Config
Process
p1
c__builtin__
object
p2
Ntp3
Rp4
(dp5
S'ak4JPTL1L2L3Residual'
p6
g0
(cFWCore.ParameterSet.Modules
ESProducer
p7
g2
Ntp8
Rp9
(dp10
S'_Parameterizable__parameterNames'
p11
(lp12
S'correctors'
p13
asS'_isFrozen'
p14
I00
sS'_isModified'
p15
I00
sS'_lineNumber'
p16
I52
sS'_filename'
p17
S'/cvmfs/cms.cern.ch/slc6_amd64_gcc630/cms/cmssw/CMSSW_9_4_2/python/FWCore/ParameterSet/Modules.py'
p18
sg13
g0
(cFWCore.ParameterSet.Types
vstring
p19
c__builtin__
list
p20
(lp21
S'ak4L1JPTOffset'
p22
aS'ak4JPTL2Relative'
p23
aS'ak4JPTL3Absolute'
p24
aS'ak4JPTResidual'
p25
atp26
Rp27
(dp28
g14
I00
sS'_ParameterTypeBase__isTracked'
p29
I01
sg15
I00
sS'_nPerLine'
p30
I1
sbsS'_Labelable__label'
p31
g6
sS'_TypedParameterizable__type'
p32
S'JetCorrectionESChain'
p33
sbsS'ak7CaloL1Fastjet'
p34
g0
(g7
g2
Ntp35
Rp36
(dp37
g11
(lp38
S'srcRho'
p39
aS'algorithm'
p40
aS'level'
p41
asg14
I00
sg15
I00
sg40
g0
(cFWCore.ParameterSet.Types
string
p42
g2
Ntp43
Rp44
(dp45
g14
I00
sg29
I01
sS'_value'
p46
S'AK7Calo'
p47
sg15
I01
sbsg41
g0
(g42
g2
Ntp48
Rp49
(dp50
g14
I00
sg29
I01
sg46
S'L1FastJet'
p51
sg15
I00
sbsg17
S'/cvmfs/cms.cern.ch/slc6_amd64_gcc630/cms/cmssw/CMSSW_9_4_2/python/JetMETCorrections/Configuration/JetCorrectionServicesAllAlgos_cff.py'
p52
sg16
I49
sg39
g0
(cFWCore.ParameterSet.Types
InputTag
p53
g2
Ntp54
Rp55
(dp56
g14
I00
sg29
I01
sg15
I00
sS'_InputTag__moduleLabel'
p57
S'fixedGridRhoFastjetAllCalo'
p58
sS'_InputTag__productInstance'
p59
S''
p60
sS'_InputTag__processName'
p61
g60
sbsg31
g34
sg32
S'L1FastjetCorrectionESProducer'
p62
sbsS'ak10PFCHSL1L2L3Residual'
p63
g0
(g7
g2
Ntp64
Rp65
(dp66
g11
(lp67
g13
asg14
I00
sg15
I00
sg16
I52
sg17
g18
sg13
g0
(g19
g20
(lp68
S'ak10PFCHSL1Offset'
p69
aS'ak10PFCHSL2Relative'
p70
aS'ak10PFCHSL3Absolute'
p71
aS'ak10PFCHSResidual'
p72
atp73
Rp74
(dp75
g14
I00
sg29
I01
sg15
I00
sg30
I1
sbsg31
g63
sg32
g33
sbsS'ak7PFCHSL1Fastjet'
p76
g0
(g7
g2
Ntp77
Rp78
(dp79
g11
(lp80
g39
ag40
ag41
asg14
I00
sg15
I00
sg40
g0
(g42
g2
Ntp81
Rp82
(dp83
g14
I00
sg29
I01
sg46
S'AK7PFchs'
p84
sg15
I01
sbsg41
g0
(g42
g2
Ntp85
Rp86
(dp87
g14
I00
sg29
I01
sg46
g51
sg15
I00
sbsg17
g52
sg16
I73
sg39
g0
(g53
g2
Ntp88
Rp89
(dp90
g14
I00
sg29
I01
sg15
I00
sg57
S'fixedGridRhoFastjetAll'
p91
sg59
g60
sg61
g60
sbsg31
g76
sg32
g62
sbsS'ak2PFL3Absolute'
p92
g0
(g7
g2
Ntp93
Rp94
(dp95
g11
(lp96
g40
ag41
asg14
I00
sg15
I00
sg40
g0
(g42
g2
Ntp97
Rp98
(dp99
g14
I00
sg29
I01
sg46
S'AK2PF'
p100
sg15
I01
sbsg41
g0
(g42
g2
Ntp101
Rp102
(dp103
g14
I00
sg29
I01
sg46
S'L3Absolute'
p104
sg15
I00
sbsg17
g52
sg16
I121
sg31
g92
sg32
S'LXXXCorrectionESProducer'
p105
sbsS'kt6PFL1L2L3Residual'
p106
g0
(g7
g2
Ntp107
Rp108
(dp109
g11
(lp110
g13
asg14
I00
sg15
I00
sg16
I52
sg17
g18
sg13
g0
(g19
g20
(lp111
S'kt6PFL1Offset'
p112
aS'kt6PFL2Relative'
p113
aS'kt6PFL3Absolute'
p114
aS'kt6PFResidual'
p115
atp116
Rp117
(dp118
g14
I00
sg29
I01
sg15
I00
sg30
I1
sbsg31
g106
sg32
g33
sbsS'ak8PFL1FastjetL2L3Residual'
p119
g0
(g7
g2
Ntp120
Rp121
(dp122
g11
(lp123
g13
asg14
I00
sg15
I00
sg16
I52
sg17
g18
sg13
g0
(g19
g20
(lp124
S'ak8PFL1Fastjet'
p125
aS'ak8PFL2Relative'
p126
aS'ak8PFL3Absolute'
p127
aS'ak8PFResidual'
p128
atp129
Rp130
(dp131
g14
I00
sg29
I01
sg15
I00
sg30
I1
sbsg31
g119
sg32
g33
sbsS'ak4CaloL1Offset'
p132
g0
(g7
g2
Ntp133
Rp134
(dp135
g11
(lp136
S'minVtxNdof'
p137
aS'vertexCollection'
p138
ag40
ag41
asg14
I00
sg15
I00
sg40
g0
(g42
g2
Ntp139
Rp140
(dp141
g14
I00
sg29
I01
sg46
S'AK5Calo'
p142
sg15
I00
sbsg137
g0
(cFWCore.ParameterSet.Types
int32
p143
g2
Ntp144
Rp145
(dp146
g14
I00
sg29
I01
sg46
I4
sg15
I00
sbsg17
g18
sg41
g0
(g42
g2
Ntp147
Rp148
(dp149
g14
I00
sg29
I01
sg46
S'L1Offset'
p150
sg15
I00
sbsg138
g0
(g42
g2
Ntp151
Rp152
(dp153
g14
I00
sg29
I01
sg46
S'offlinePrimaryVertices'
p154
sg15
I00
sbsg16
I52
sg31
g132
sg32
S'L1OffsetCorrectionESProducer'
p155
sbsS'kt4PFL2L3'
p156
g0
(g7
g2
Ntp157
Rp158
(dp159
g11
(lp160
g13
asg14
I00
sg15
I00
sg16
I52
sg17
g18
sg13
g0
(g19
g20
(lp161
S'kt4PFL2Relative'
p162
aS'kt4PFL3Absolute'
p163
atp164
Rp165
(dp166
g14
I00
sg29
I01
sg15
I00
sg30
I1
sbsg31
g156
sg32
g33
sbsS'kt6PFL1FastL2L3L6'
p167
g0
(g7
g2
Ntp168
Rp169
(dp170
g11
(lp171
g13
asg14
I00
sg15
I00
sg16
I773
sg17
g52
sg13
g0
(g19
g20
(lp172
S'ak4PFL1Fastjet'
p173
ag113
ag114
aS'kt6PFL6SLB'
p174
atp175
Rp176
(dp177
g14
I00
sg29
I01
sg15
I00
sg30
I1
sbsg31
g167
sg32
g33
sbsS'ak5PFCHSL2L3Residual'
p178
g0
(g7
g2
Ntp179
Rp180
(dp181
g11
(lp182
g13
asg14
I00
sg15
I00
sg16
I52
sg17
g18
sg13
g0
(g19
g20
(lp183
S'ak5PFCHSL2Relative'
p184
aS'ak5PFCHSL3Absolute'
p185
aS'ak5PFCHSResidual'
p186
atp187
Rp188
(dp189
g14
I00
sg29
I01
sg15
I00
sg30
I1
sbsg31
g178
sg32
g33
sbsS'ak7JPTL1FastL2L3Residual'
p190
g0
(g7
g2
Ntp191
Rp192
(dp193
g11
(lp194
g13
asg14
I00
sg15
I00
sg16
I52
sg17
g18
sg13
g0
(g19
g20
(lp195
S'ak7L1JPTFastjet'
p196
aS'ak7JPTL2Relative'
p197
aS'ak7JPTL3Absolute'
p198
aS'ak7JPTResidual'
p199
atp200
Rp201
(dp202
g14
I00
sg29
I01
sg15
I00
sg30
I1
sbsg31
g190
sg32
g33
sbsS'ak4CaloL2L3Residual'
p203
g0
(g7
g2
Ntp204
Rp205
(dp206
g11
(lp207
g13
asg14
I00
sg15
I00
sg16
I52
sg17
g18
sg13
g0
(g19
g20
(lp208
S'ak4CaloL2Relative'
p209
aS'ak4CaloL3Absolute'
p210
aS'ak4CaloResidual'
p211
atp212
Rp213
(dp214
g14
I00
sg29
I01
sg15
I00
sg30
I1
sbsg31
g203
sg32
g33
sbsS'ak8PFCHSL3Absolute'
p215
g0
(g7
g2
Ntp216
Rp217
(dp218
g11
(lp219
g40
ag41
asg14
I00
sg15
I00
sg40
g0
(g42
g2
Ntp220
Rp221
(dp222
g14
I00
sg29
I01
sg46
S'AK8PFchs'
p223
sg15
I01
sbsg41
g0
(g42
g2
Ntp224
Rp225
(dp226
g14
I00
sg29
I01
sg46
g104
sg15
I00
sbsg17
g52
sg16
I132
sg31
g215
sg32
g105
sbsS'ic5CaloL6SLB'
p227
g0
(g7
g2
Ntp228
Rp229
(dp230
g11
(lp231
S'srcBTagInfoElectron'
p232
aS'srcBTagInfoMuon'
p233
aS'addMuonToJet'
p234
ag40
ag41
asg14
I00
sg15
I00
sg40
g0
(g42
g2
Ntp235
Rp236
(dp237
g14
I00
sg29
I01
sg46
g60
sg15
I00
sbsg232
g0
(g53
g2
Ntp238
Rp239
(dp240
g14
I00
sg29
I01
sg15
I00
sg57
S'ic5CaloJetsSoftElectronTagInfos'
p241
sg61
g60
sg59
g60
sbsg17
g52
sg41
g0
(g42
g2
Ntp242
Rp243
(dp244
g14
I00
sg29
I01
sg46
S'L6SLB'
p245
sg15
I00
sbsg233
g0
(g53
g2
Ntp246
Rp247
(dp248
g14
I00
sg29
I01
sg15
I00
sg57
S'ic5CaloJetsSoftMuonTagInfos'
p249
sg61
g60
sg59
g60
sbsg16
I185
sg234
g0
(cFWCore.ParameterSet.Types
bool
p250
g2
Ntp251
Rp252
(dp253
g14
I00
sg29
I01
sg46
I01
sg15
I00
sbsg31
g227
sg32
S'L6SLBCorrectionESProducer'
p254
sbsS'ic5PFL1L2L3Residual'
p255
g0
(g7
g2
Ntp256
Rp257
(dp258
g11
(lp259
g13
asg14
I00
sg15
I00
sg16
I52
sg17
g18
sg13
g0
(g19
g20
(lp260
S'ic5PFL1Offset'
p261
aS'ic5PFL2Relative'
p262
aS'ic5PFL3Absolute'
p263
aS'ic5PFResidual'
p264
atp265
Rp266
(dp267
g14
I00
sg29
I01
sg15
I00
sg30
I1
sbsg31
g255
sg32
g33
sbsS'kt6CaloL3Absolute'
p268
g0
(g7
g2
Ntp269
Rp270
(dp271
g11
(lp272
g40
ag41
asg14
I00
sg15
I00
sg40
g0
(g42
g2
Ntp273
Rp274
(dp275
g14
I00
sg29
I01
sg46
S'KT6Calo'
p276
sg15
I01
sbsg41
g0
(g42
g2
Ntp277
Rp278
(dp279
g14
I00
sg29
I01
sg46
g104
sg15
I00
sbsg17
g52
sg16
I116
sg31
g268
sg32
g105
sbsS'_Process__InExtendCall'
p280
I00
sS'ak6PFCHSL2L3'
p281
g0
(g7
g2
Ntp282
Rp283
(dp284
g11
(lp285
g13
asg14
I00
sg15
I00
sg16
I52
sg17
g18
sg13
g0
(g19
g20
(lp286
S'ak6PFCHSL2Relative'
p287
aS'ak6PFCHSL3Absolute'
p288
atp289
Rp290
(dp291
g14
I00
sg29
I01
sg15
I00
sg30
I1
sbsg31
g281
sg32
g33
sbsg72
g0
(g7
g2
Ntp292
Rp293
(dp294
g11
(lp295
g40
ag41
asg14
I00
sg15
I00
sg40
g0
(g42
g2
Ntp296
Rp297
(dp298
g14
I00
sg29
I01
sg46
S'AK10PFchs'
p299
sg15
I01
sbsg41
g0
(g42
g2
Ntp300
Rp301
(dp302
g14
I00
sg29
I01
sg46
S'L2L3Residual'
p303
sg15
I00
sbsg17
g52
sg16
I164
sg31
g72
sg32
g105
sbsS'ak4TrackL1FastL2L3'
p304
g0
(g7
g2
Ntp305
Rp306
(dp307
g11
(lp308
g13
asg14
I00
sg15
I00
sg16
I619
sg17
g52
sg13
g0
(g19
g20
(lp309
S'ak4CaloL1Fastjet'
p310
aS'ak4TrackL2Relative'
p311
aS'ak4TrackL3Absolute'
p312
atp313
Rp314
(dp315
g14
I00
sg29
I01
sg15
I00
sg30
I1
sbsg31
g304
sg32
g33
sbsS'p'
p316
g0
(cFWCore.ParameterSet.SequenceTypes
Path
p317
g2
Ntp318
Rp319
(dp320
g14
I00
sS'_seq'
p321
g0
(cFWCore.ParameterSet.SequenceTypes
_SequenceCollection
p322
g2
Ntp323
Rp324
(dp325
S'_collection'
p326
(lp327
g0
(cFWCore.ParameterSet.Modules
EDProducer
p328
g2
Ntp329
Rp330
(dp331
g11
(lp332
S'src'
p333
aS'emf'
p334
aS'extraJPTOffset'
p335
aS'primaryVertices'
p336
aS'levels'
p337
aS'useNPV'
p338
aS'rho'
p339
aS'useRho'
p340
aS'payload'
p341
aS'flavorType'
p342
asg14
I00
sg342
g0
(g42
g2
Ntp343
Rp344
(dp345
g14
I00
sg29
I01
sg46
S'J'
p346
sg15
I00
sbsg334
g0
(g250
g2
Ntp347
Rp348
(dp349
g14
I00
sg29
I01
sg46
I00
sg15
I00
sbsg15
I00
sg333
g0
(g53
g2
Ntp350
Rp351
(dp352
g14
I00
sg29
I01
sg15
I00
sg57
S'slimmedJetsAK8'
p353
sg61
g60
sg59
g60
sbsg17
S'/afs/cern.ch/user/g/gbakas/CRAB3-jobs/CMSSW_9_4_2/src/UserCode/TopAnalysis/prod/ttbar/flat-data-cfg.py'
p354
sg335
g0
(g42
g2
Ntp355
Rp356
(dp357
g14
I00
sg29
I01
sg46
g51
sg15
I00
sbsg336
g0
(g53
g2
Ntp358
Rp359
(dp360
g14
I00
sg29
I01
sg15
I00
sg57
S'offlineSlimmedPrimaryVertices'
p361
sg59
g60
sg61
g60
sbsg31
S'patJetCorrFactorsReapplyJECAK8'
p362
sg337
g0
(g19
g20
(lp363
g51
aS'L2Relative'
p364
ag104
ag303
atp365
Rp366
(dp367
g14
I00
sg29
I01
sg15
I01
sg30
I1
sbsg16
I40
sg338
g0
(g250
g2
Ntp368
Rp369
(dp370
g14
I00
sg29
I01
sg46
I01
sg15
I00
sbsg339
g0
(g53
g2
Ntp371
Rp372
(dp373
g14
I00
sg29
I01
sg15
I00
sg57
g91
sg59
g60
sg61
g60
sbsg340
g0
(g250
g2
Ntp374
Rp375
(dp376
g14
I00
sg29
I01
sg46
I01
sg15
I00
sbsg341
g0
(g42
g2
Ntp377
Rp378
(dp379
g14
I00
sg29
I01
sg46
S'AK8PFPuppi'
p380
sg15
I01
sbsg32
S'JetCorrFactorsProducer'
p381
sbag0
(g328
g2
Ntp382
Rp383
(dp384
g11
(lp385
S'addTagInfos'
p386
aS'jetSource'
p387
aS'jetCorrFactorsSource'
p388
aS'addDiscriminators'
p389
aS'tagInfoSources'
p390
aS'discriminatorSources'
p391
aS'addBTagInfo'
p392
aS'addJetCorrFactors'
p393
aS'userData'
p394
asg14
I00
sg15
I00
sg387
g0
(g53
g2
Ntp395
Rp396
(dp397
g14
I00
sg29
I01
sg15
I00
sg57
g353
sg61
g60
sg59
g60
sbsg17
g354
sg388
g0
(cFWCore.ParameterSet.Types
VInputTag
p398
g20
(lp399
g0
(g53
g2
Ntp400
Rp401
(dp402
g14
I00
sg29
I01
sg15
I00
sg57
g362
sg61
g60
sg59
g60
sbatp403
Rp404
(dp405
g14
I00
sg29
I01
sg15
I00
sbsg389
g0
(g250
g2
Ntp406
Rp407
(dp408
g14
I00
sg29
I01
sg46
I01
sg15
I00
sbsg31
S'patJetsReapplyJECAK8'
p409
sg16
I45
sg390
g0
(g398
g20
(lp410
tp411
Rp412
(dp413
g14
I00
sg29
I01
sg15
I00
sbsg391
g0
(g398
g20
(lp414
tp415
Rp416
(dp417
g14
I00
sg29
I01
sg15
I00
sbsg392
g0
(g250
g2
Ntp418
Rp419
(dp420
g14
I00
sg29
I01
sg46
I01
sg15
I00
sbsg393
g0
(g250
g2
Ntp421
Rp422
(dp423
g14
I00
sg29
I01
sg46
I01
sg15
I00
sbsg394
g0
(cFWCore.ParameterSet.Types
PSet
p424
g2
Ntp425
Rp426
(dp427
g14
I00
sg29
I01
sS'userCands'
p428
g0
(g424
g2
Ntp429
Rp430
(dp431
g14
I00
sg29
I01
sg333
g0
(g398
g20
(lp432
g60
atp433
Rp434
(dp435
g14
I00
sg29
I01
sg15
I00
sbsg15
I00
sg11
(lp436
g333
asbsg15
I00
sS'userInts'
p437
g0
(g424
g2
Ntp438
Rp439
(dp440
g14
I00
sg29
I01
sg333
g0
(g398
g20
(lp441
g60
atp442
Rp443
(dp444
g14
I00
sg29
I01
sg15
I00
sbsg15
I00
sg11
(lp445
g333
asbsS'userFloats'
p446
g0
(g424
g2
Ntp447
Rp448
(dp449
g14
I00
sg29
I01
sg333
g0
(g398
g20
(lp450
g60
atp451
Rp452
(dp453
g14
I00
sg29
I01
sg15
I00
sbsg15
I00
sg11
(lp454
g333
asbsg11
(lp455
g428
ag437
ag446
aS'userClasses'
p456
aS'userFunctionLabels'
p457
aS'userFunctions'
p458
asg456
g0
(g424
g2
Ntp459
Rp460
(dp461
g14
I00
sg29
I01
sg333
g0
(g398
g20
(lp462
g60
atp463
Rp464
(dp465
g14
I00
sg29
I01
sg15
I00
sbsg15
I00
sg11
(lp466
g333
asbsg457
g0
(g19
g20
(lp467
tp468
Rp469
(dp470
g14
I00
sg29
I01
sg15
I00
sg30
I1
sbsg458
g0
(g19
g20
(lp471
tp472
Rp473
(dp474
g14
I00
sg29
I01
sg15
I00
sg30
I1
sbsbsg386
g0
(g250
g2
Ntp475
Rp476
(dp477
g14
I00
sg29
I01
sg46
I00
sg15
I00
sbsg32
S'PATJetUpdater'
p478
sbag0
(cFWCore.ParameterSet.Modules
EDAnalyzer
p479
g2
Ntp480
Rp481
(dp482
g14
I00
sg16
I78
sS'triggerPrescales'
p483
g0
(g53
g2
Ntp484
Rp485
(dp486
g14
I00
sg29
I01
sg15
I00
sg57
S'patTrigger'
p487
sg61
g60
sg59
g60
sbsS'minMuPt'
p488
g0
(cFWCore.ParameterSet.Types
double
p489
g2
Ntp490
Rp491
(dp492
g14
I00
sg29
I01
sg46
I20
sg15
I00
sbsS'minElPt'
p493
g0
(g489
g2
Ntp494
Rp495
(dp496
g14
I00
sg29
I01
sg46
I20
sg15
I00
sbsS'massMin'
p497
g0
(g489
g2
Ntp498
Rp499
(dp500
g14
I00
sg29
I01
sg46
I50
sg15
I00
sbsS'etaMax'
p501
g0
(g489
g2
Ntp502
Rp503
(dp504
g14
I00
sg29
I01
sg46
F2.4
sg15
I00
sbsg32
S'BoostedTTbarFlatTreeProducer'
p505
sg11
(lp506
g483
ag488
aS'btagger'
p507
aS'triggerNames'
p508
aS'triggerResults'
p509
ag493
aS'xmlFile'
p510
aS'vertices'
p511
aS'met'
p512
ag497
aS'candidates'
p513
aS'ptMin'
p514
ag339
aS'jets'
p515
aS'muons'
p516
ag501
aS'electrons'
p517
aS'btagMin'
p518
asg510
g0
(g42
g2
Ntp519
Rp520
(dp521
g14
I00
sg29
I01
sg46
S'boosted_mva_MLP.weights.xml'
p522
sg15
I00
sbsg508
g0
(g19
g20
(lp523
S'HLT_AK8PFJet360_TrimMass30_v'
p524
aS'HLT_AK8PFJet140_v'
p525
aS'HLT_AK8PFJet200_v'
p526
aS'HLT_AK8PFJet260_v'
p527
aS'HLT_AK8PFHT750_TrimMass50_v'
p528
aS'HLT_AK8PFHT800_TrimMass50_v'
p529
aS'HLT_AK8PFHT900_TrimMass50_v'
p530
aS'HLT_AK8PFHT950_TrimMass50_v'
p531
aS'HLT_IsoMu27_v'
p532
aS'HLT_Mu50_v'
p533
atp534
Rp535
(dp536
g14
I00
sg29
I01
sg15
I00
sg30
I1
sbsg17
g354
sg513
g0
(g53
g2
Ntp537
Rp538
(dp539
g14
I00
sg29
I01
sg15
I00
sg57
S'packedPFCandidates'
p540
sg61
g60
sg59
g60
sbsg514
g0
(g489
g2
Ntp541
Rp542
(dp543
g14
I00
sg29
I01
sg46
I200
sg15
I00
sbsg509
g0
(g53
g2
Ntp544
Rp545
(dp546
g14
I00
sg29
I01
sg15
I00
sg57
S'TriggerResults'
p547
sg61
S'HLT'
p548
sg59
g60
sbsg516
g0
(g53
g2
Ntp549
Rp550
(dp551
g14
I00
sg29
I01
sg15
I00
sg57
S'slimmedMuons'
p552
sg61
g60
sg59
g60
sbsg507
g0
(g42
g2
Ntp553
Rp554
(dp555
g14
I00
sg29
I01
sg46
S'pfCombinedInclusiveSecondaryVertexV2BJetTags'
p556
sg15
I00
sbsg518
g0
(g489
g2
Ntp557
Rp558
(dp559
g14
I00
sg29
I01
sg46
F0.8484
sg15
I00
sbsg339
g0
(g53
g2
Ntp560
Rp561
(dp562
g14
I00
sg29
I01
sg15
I00
sg57
g91
sg61
g60
sg59
g60
sbsg515
g0
(g53
g2
Ntp563
Rp564
(dp565
g14
I00
sg29
I01
sg15
I00
sg57
g409
sg61
g60
sg59
g60
sbsg15
I00
sg512
g0
(g53
g2
Ntp566
Rp567
(dp568
g14
I00
sg29
I01
sg15
I00
sg57
S'slimmedMETs'
p569
sg61
g60
sg59
g60
sbsg511
g0
(g53
g2
Ntp570
Rp571
(dp572
g14
I00
sg29
I01
sg15
I00
sg57
g361
sg61
g60
sg59
g60
sbsg517
g0
(g53
g2
Ntp573
Rp574
(dp575
g14
I00
sg29
I01
sg15
I00
sg57
S'slimmedElectrons'
p576
sg61
g60
sg59
g60
sbsg31
S'boosted'
p577
sbasbsg31
g316
sg15
I00
sS'_tasks'
p578
g0
(cFWCore.ParameterSet.OrderedSet
OrderedSet
p579
g2
Ntp580
Rp581
(dp582
S'map'
p583
(dp584
sS'end'
p585
(lp586
Nag586
ag586
asbsbsS'ak10PFL1L2L3Residual'
p587
g0
(g7
g2
Ntp588
Rp589
(dp590
g11
(lp591
g13
asg14
I00
sg15
I00
sg16
I52
sg17
g18
sg13
g0
(g19
g20
(lp592
S'ak10PFL1Offset'
p593
aS'ak10PFL2Relative'
p594
aS'ak10PFL3Absolute'
p595
aS'ak10PFResidual'
p596
atp597
Rp598
(dp599
g14
I00
sg29
I01
sg15
I00
sg30
I1
sbsg31
g587
sg32
g33
sbsS'ak4PFCHSL2Relative'
p600
g0
(g7
g2
Ntp601
Rp602
(dp603
g11
(lp604
g40
ag41
asg14
I00
sg15
I00
sg40
g0
(g42
g2
Ntp605
Rp606
(dp607
g14
I00
sg29
I01
sg46
S'AK4PFchs'
p608
sg15
I01
sbsg41
g0
(g42
g2
Ntp609
Rp610
(dp611
g14
I00
sg29
I01
sg46
g364
sg15
I00
sbsg17
S'/cvmfs/cms.cern.ch/slc6_amd64_gcc630/cms/cmssw/CMSSW_9_4_2/python/JetMETCorrections/Configuration/JetCorrectionServices_cff.py'
p612
sg16
I77
sg31
g600
sg32
g105
sbsS'kt4PFL6SLB'
p613
g0
(g7
g2
Ntp614
Rp615
(dp616
g11
(lp617
g232
ag233
ag234
ag40
ag41
asg14
I00
sg15
I00
sg40
g0
(g42
g2
Ntp618
Rp619
(dp620
g14
I00
sg29
I01
sg46
g60
sg15
I00
sbsg232
g0
(g53
g2
Ntp621
Rp622
(dp623
g14
I00
sg29
I01
sg15
I00
sg57
S'kt4PFJetsSoftElectronTagInfos'
p624
sg61
g60
sg59
g60
sbsg17
g52
sg41
g0
(g42
g2
Ntp625
Rp626
(dp627
g14
I00
sg29
I01
sg46
g245
sg15
I00
sbsg233
g0
(g53
g2
Ntp628
Rp629
(dp630
g14
I00
sg29
I01
sg15
I00
sg57
S'kt4PFJetsSoftMuonTagInfos'
p631
sg61
g60
sg59
g60
sbsg16
I194
sg234
g0
(g250
g2
Ntp632
Rp633
(dp634
g14
I00
sg29
I01
sg46
I00
sg15
I00
sbsg31
g613
sg32
g254
sbsS'ak7CaloResidual'
p635
g0
(g7
g2
Ntp636
Rp637
(dp638
g11
(lp639
g40
ag41
asg14
I00
sg15
I00
sg40
g0
(g42
g2
Ntp640
Rp641
(dp642
g14
I00
sg29
I01
sg46
g47
sg15
I01
sbsg41
g0
(g42
g2
Ntp643
Rp644
(dp645
g14
I00
sg29
I01
sg46
g303
sg15
I00
sbsg17
g52
sg16
I142
sg31
g635
sg32
g105
sbsS'ak5PFL1FastjetL2L3Residual'
p646
g0
(g7
g2
Ntp647
Rp648
(dp649
g11
(lp650
g13
asg14
I00
sg15
I00
sg16
I52
sg17
g18
sg13
g0
(g19
g20
(lp651
S'ak5PFL1Fastjet'
p652
aS'ak5PFL2Relative'
p653
aS'ak5PFL3Absolute'
p654
aS'ak5PFResidual'
p655
atp656
Rp657
(dp658
g14
I00
sg29
I01
sg15
I00
sg30
I1
sbsg31
g646
sg32
g33
sbsS'ak7PFCHSL2L3'
p659
g0
(g7
g2
Ntp660
Rp661
(dp662
g11
(lp663
g13
asg14
I00
sg15
I00
sg16
I52
sg17
g18
sg13
g0
(g19
g20
(lp664
S'ak7PFCHSL2Relative'
p665
aS'ak7PFCHSL3Absolute'
p666
atp667
Rp668
(dp669
g14
I00
sg29
I01
sg15
I00
sg30
I1
sbsg31
g659
sg32
g33
sbsS'siStripBackPlaneCorrectionDepESProducer'
p670
g0
(g7
g2
Ntp671
Rp672
(dp673
g11
(lp674
S'LatencyRecord'
p675
aS'BackPlaneCorrectionDeconvMode'
p676
aS'BackPlaneCorrectionPeakMode'
p677
asg14
I00
sg15
I00
sg16
I52
sg17
g18
sg675
g0
(g424
g2
Ntp678
Rp679
(dp680
g14
I00
sg29
I01
sg15
I00
sS'label'
p681
g0
(g42
g2
Ntp682
Rp683
(dp684
g14
I00
sg29
I00
sg46
g60
sg15
I00
sbsS'record'
p685
g0
(g42
g2
Ntp686
Rp687
(dp688
g14
I00
sg29
I01
sg46
S'SiStripLatencyRcd'
p689
sg15
I00
sbsg11
(lp690
g685
ag681
asbsg677
g0
(g424
g2
Ntp691
Rp692
(dp693
g14
I00
sg29
I01
sg15
I00
sg681
g0
(g42
g2
Ntp694
Rp695
(dp696
g14
I00
sg29
I00
sg46
S'peak'
p697
sg15
I00
sbsg685
g0
(g42
g2
Ntp698
Rp699
(dp700
g14
I00
sg29
I01
sg46
S'SiStripBackPlaneCorrectionRcd'
p701
sg15
I00
sbsg11
(lp702
g685
ag681
asbsg31
g670
sg676
g0
(g424
g2
Ntp703
Rp704
(dp705
g14
I00
sg29
I01
sg15
I00
sg681
g0
(g42
g2
Ntp706
Rp707
(dp708
g14
I00
sg29
I00
sg46
S'deconvolution'
p709
sg15
I00
sbsg685
g0
(g42
g2
Ntp710
Rp711
(dp712
g14
I00
sg29
I01
sg46
g701
sg15
I00
sbsg11
(lp713
g685
ag681
asbsg32
S'SiStripBackPlaneCorrectionDepESProducer'
p714
sbsS'ak8PFL1L2L3Residual'
p715
g0
(g7
g2
Ntp716
Rp717
(dp718
g11
(lp719
g13
asg14
I00
sg15
I00
sg16
I52
sg17
g18
sg13
g0
(g19
g20
(lp720
S'ak8PFL1Offset'
p721
ag126
ag127
ag128
atp722
Rp723
(dp724
g14
I00
sg29
I01
sg15
I00
sg30
I1
sbsg31
g715
sg32
g33
sbsS'ak4JPTL1FastL2L3Residual'
p725
g0
(g7
g2
Ntp726
Rp727
(dp728
g11
(lp729
g13
asg14
I00
sg15
I00
sg16
I52
sg17
g18
sg13
g0
(g19
g20
(lp730
S'ak4L1JPTFastjet'
p731
ag23
ag24
ag25
atp732
Rp733
(dp734
g14
I00
sg29
I01
sg15
I00
sg30
I1
sbsg31
g725
sg32
g33
sbsS'kt6CaloL1FastL2L3L6'
p735
g0
(g7
g2
Ntp736
Rp737
(dp738
g11
(lp739
g13
asg14
I00
sg15
I00
sg16
I764
sg17
g52
sg13
g0
(g19
g20
(lp740
S'kt6CaloL1Offset'
p741
aS'kt6CaloL2Relative'
p742
ag268
aS'kt6CaloL6SLB'
p743
atp744
Rp745
(dp746
g14
I00
sg29
I01
sg15
I00
sg30
I1
sbsg31
g735
sg32
g33
sbsS'ak7PFCHSL1Offset'
p747
g0
(g7
g2
Ntp748
Rp749
(dp750
g11
(lp751
g137
ag138
ag40
ag41
asg14
I00
sg15
I00
sg40
g0
(g42
g2
Ntp752
Rp753
(dp754
g14
I00
sg29
I01
sg46
g84
sg15
I01
sbsg137
g0
(g143
g2
Ntp755
Rp756
(dp757
g14
I00
sg29
I01
sg46
I4
sg15
I00
sbsg17
g52
sg41
g0
(g42
g2
Ntp758
Rp759
(dp760
g14
I00
sg29
I01
sg46
g150
sg15
I00
sbsg138
g0
(g42
g2
Ntp761
Rp762
(dp763
g14
I00
sg29
I01
sg46
g154
sg15
I00
sbsg16
I29
sg31
g747
sg32
g155
sbsS'ak10PFL1Fastjet'
p764
g0
(g7
g2
Ntp765
Rp766
(dp767
g11
(lp768
g39
ag40
ag41
asg14
I00
sg15
I00
sg40
g0
(g42
g2
Ntp769
Rp770
(dp771
g14
I00
sg29
I01
sg46
S'AK10PF'
p772
sg15
I01
sbsg41
g0
(g42
g2
Ntp773
Rp774
(dp775
g14
I00
sg29
I01
sg46
g51
sg15
I00
sbsg17
g52
sg16
I78
sg39
g0
(g53
g2
Ntp776
Rp777
(dp778
g14
I00
sg29
I01
sg15
I00
sg57
g91
sg59
g60
sg61
g60
sbsg31
g764
sg32
g62
sbsg262
g0
(g7
g2
Ntp779
Rp780
(dp781
g11
(lp782
g40
ag41
asg14
I00
sg15
I00
sg40
g0
(g42
g2
Ntp783
Rp784
(dp785
g14
I00
sg29
I01
sg46
S'IC5PF'
p786
sg15
I01
sbsg41
g0
(g42
g2
Ntp787
Rp788
(dp789
g14
I00
sg29
I01
sg46
g364
sg15
I00
sbsg17
g52
sg16
I111
sg31
g262
sg32
g105
sbsg595
g0
(g7
g2
Ntp790
Rp791
(dp792
g11
(lp793
g40
ag41
asg14
I00
sg15
I00
sg40
g0
(g42
g2
Ntp794
Rp795
(dp796
g14
I00
sg29
I01
sg46
g772
sg15
I01
sbsg41
g0
(g42
g2
Ntp797
Rp798
(dp799
g14
I00
sg29
I01
sg46
g104
sg15
I00
sbsg17
g52
sg16
I135
sg31
g595
sg32
g105
sbsS'ak3PFCHSL2L3Residual'
p800
g0
(g7
g2
Ntp801
Rp802
(dp803
g11
(lp804
g13
asg14
I00
sg15
I00
sg16
I52
sg17
g18
sg13
g0
(g19
g20
(lp805
S'ak3PFCHSL2Relative'
p806
aS'ak3PFCHSL3Absolute'
p807
aS'ak3PFCHSResidual'
p808
atp809
Rp810
(dp811
g14
I00
sg29
I01
sg15
I00
sg30
I1
sbsg31
g800
sg32
g33
sbsS'kt6CaloL2L3'
p812
g0
(g7
g2
Ntp813
Rp814
(dp815
g11
(lp816
g13
asg14
I00
sg15
I00
sg16
I52
sg17
g18
sg13
g0
(g19
g20
(lp817
g742
ag268
atp818
Rp819
(dp820
g14
I00
sg29
I01
sg15
I00
sg30
I1
sbsg31
g812
sg32
g33
sbsS'kt6CaloL2L3Residual'
p821
g0
(g7
g2
Ntp822
Rp823
(dp824
g11
(lp825
g13
asg14
I00
sg15
I00
sg16
I52
sg17
g18
sg13
g0
(g19
g20
(lp826
g742
ag268
aS'kt6CaloResidual'
p827
atp828
Rp829
(dp830
g14
I00
sg29
I01
sg15
I00
sg30
I1
sbsg31
g821
sg32
g33
sbsS'ak1PFCHSL3Absolute'
p831
g0
(g7
g2
Ntp832
Rp833
(dp834
g11
(lp835
g40
ag41
asg14
I00
sg15
I00
sg40
g0
(g42
g2
Ntp836
Rp837
(dp838
g14
I00
sg29
I01
sg46
S'AK1PFchs'
p839
sg15
I01
sbsg41
g0
(g42
g2
Ntp840
Rp841
(dp842
g14
I00
sg29
I01
sg46
g104
sg15
I00
sbsg17
g52
sg16
I120
sg31
g831
sg32
g105
sbsS'ic5CaloL2L3Residual'
p843
g0
(g7
g2
Ntp844
Rp845
(dp846
g11
(lp847
g13
asg14
I00
sg15
I00
sg16
I52
sg17
g18
sg13
g0
(g19
g20
(lp848
S'ic5CaloL2Relative'
p849
aS'ic5CaloL3Absolute'
p850
aS'ic5CaloResidual'
p851
atp852
Rp853
(dp854
g14
I00
sg29
I01
sg15
I00
sg30
I1
sbsg31
g843
sg32
g33
sbsS'ak7PFL1Offset'
p855
g0
(g7
g2
Ntp856
Rp857
(dp858
g11
(lp859
g137
ag138
ag40
ag41
asg14
I00
sg15
I00
sg40
g0
(g42
g2
Ntp860
Rp861
(dp862
g14
I00
sg29
I01
sg46
S'AK7PF'
p863
sg15
I01
sbsg137
g0
(g143
g2
Ntp864
Rp865
(dp866
g14
I00
sg29
I01
sg46
I4
sg15
I00
sbsg17
g52
sg41
g0
(g42
g2
Ntp867
Rp868
(dp869
g14
I00
sg29
I01
sg46
g150
sg15
I00
sbsg138
g0
(g42
g2
Ntp870
Rp871
(dp872
g14
I00
sg29
I01
sg46
g154
sg15
I00
sbsg16
I28
sg31
g855
sg32
g155
sbsg409
g383
sS'ak7PFL1L2L3'
p873
g0
(g7
g2
Ntp874
Rp875
(dp876
g11
(lp877
g13
asg14
I00
sg15
I00
sg16
I52
sg17
g18
sg13
g0
(g19
g20
(lp878
g855
aS'ak7PFL2Relative'
p879
aS'ak7PFL3Absolute'
p880
atp881
Rp882
(dp883
g14
I00
sg29
I01
sg15
I00
sg30
I1
sbsg31
g873
sg32
g33
sbsS'_Process__isStrict'
p884
I00
sg174
g0
(g7
g2
Ntp885
Rp886
(dp887
g11
(lp888
g232
ag233
ag234
ag40
ag41
asg14
I00
sg15
I00
sg40
g0
(g42
g2
Ntp889
Rp890
(dp891
g14
I00
sg29
I01
sg46
g60
sg15
I00
sbsg232
g0
(g53
g2
Ntp892
Rp893
(dp894
g14
I00
sg29
I01
sg15
I00
sg57
S'kt6PFJetsSoftElectronTagInfos'
p895
sg61
g60
sg59
g60
sbsg17
g52
sg41
g0
(g42
g2
Ntp896
Rp897
(dp898
g14
I00
sg29
I01
sg46
g245
sg15
I00
sbsg233
g0
(g53
g2
Ntp899
Rp900
(dp901
g14
I00
sg29
I01
sg15
I00
sg57
S'kt6PFJetsSoftMuonTagInfos'
p902
sg61
g60
sg59
g60
sbsg16
I198
sg234
g0
(g250
g2
Ntp903
Rp904
(dp905
g14
I00
sg29
I01
sg46
I00
sg15
I00
sbsg31
g174
sg32
g254
sbsS'ak9PFCHSL2Relative'
p906
g0
(g7
g2
Ntp907
Rp908
(dp909
g11
(lp910
g40
ag41
asg14
I00
sg15
I00
sg40
g0
(g42
g2
Ntp911
Rp912
(dp913
g14
I00
sg29
I01
sg46
S'AK9PFchs'
p914
sg15
I01
sbsg41
g0
(g42
g2
Ntp915
Rp916
(dp917
g14
I00
sg29
I01
sg46
g364
sg15
I00
sbsg17
g52
sg16
I106
sg31
g906
sg32
g105
sbsS'ak9PFL2L3Residual'
p918
g0
(g7
g2
Ntp919
Rp920
(dp921
g11
(lp922
g13
asg14
I00
sg15
I00
sg16
I52
sg17
g18
sg13
g0
(g19
g20
(lp923
S'ak9PFL2Relative'
p924
aS'ak9PFL3Absolute'
p925
aS'ak9PFResidual'
p926
atp927
Rp928
(dp929
g14
I00
sg29
I01
sg15
I00
sg30
I1
sbsg31
g918
sg32
g33
sbsS'_Process__looper'
p930
NsS'ak1PFL2L3Residual'
p931
g0
(g7
g2
Ntp932
Rp933
(dp934
g11
(lp935
g13
asg14
I00
sg15
I00
sg16
I52
sg17
g18
sg13
g0
(g19
g20
(lp936
S'ak1PFL2Relative'
p937
aS'ak1PFL3Absolute'
p938
aS'ak1PFResidual'
p939
atp940
Rp941
(dp942
g14
I00
sg29
I01
sg15
I00
sg30
I1
sbsg31
g931
sg32
g33
sbsS'ak7PFL1L2L3Residual'
p943
g0
(g7
g2
Ntp944
Rp945
(dp946
g11
(lp947
g13
asg14
I00
sg15
I00
sg16
I52
sg17
g18
sg13
g0
(g19
g20
(lp948
g855
ag879
ag880
aS'ak7PFResidual'
p949
atp950
Rp951
(dp952
g14
I00
sg29
I01
sg15
I00
sg30
I1
sbsg31
g943
sg32
g33
sbsS'kt6CaloL1L2L3Residual'
p953
g0
(g7
g2
Ntp954
Rp955
(dp956
g11
(lp957
g13
asg14
I00
sg15
I00
sg16
I52
sg17
g18
sg13
g0
(g19
g20
(lp958
g741
ag742
ag268
ag827
atp959
Rp960
(dp961
g14
I00
sg29
I01
sg15
I00
sg30
I1
sbsg31
g953
sg32
g33
sbsS'patJetCorrectionsTask'
p962
g0
(cFWCore.ParameterSet.SequenceTypes
Task
p963
g2
Ntp964
Rp965
(dp966
g326
g0
(g579
g2
Ntp967
Rp968
(dp969
g583
(dp970
g0
(g328
g2
Ntp971
Rp972
(dp973
g11
(lp974
g333
ag334
ag335
ag336
ag337
ag338
ag339
ag340
ag341
ag342
asg14
I00
sg342
g0
(g42
g2
Ntp975
Rp976
(dp977
g14
I00
sg29
I01
sg46
g346
sg15
I00
sbsg334
g0
(g250
g2
Ntp978
Rp979
(dp980
g14
I00
sg29
I01
sg46
I00
sg15
I00
sbsg15
I00
sg333
g0
(g53
g2
Ntp981
Rp982
(dp983
g14
I00
sg29
I01
sg15
I00
sg57
S'ak4PFJetsCHS'
p984
sg61
g60
sg59
g60
sbsg17
S'/cvmfs/cms.cern.ch/slc6_amd64_gcc630/cms/cmssw/CMSSW_9_4_2/python/PhysicsTools/PatAlgos/recoLayer0/jetCorrFactors_cfi.py'
p985
sg335
g0
(g42
g2
Ntp986
Rp987
(dp988
g14
I00
sg29
I01
sg46
g51
sg15
I00
sbsg336
g0
(g53
g2
Ntp989
Rp990
(dp991
g14
I00
sg29
I01
sg15
I00
sg57
g154
sg61
g60
sg59
g60
sbsg31
S'patJetCorrFactors'
p992
sg337
g0
(g19
g20
(lp993
g51
ag364
ag104
atp994
Rp995
(dp996
g14
I00
sg29
I01
sg15
I00
sg30
I1
sbsg16
I41
sg338
g0
(g250
g2
Ntp997
Rp998
(dp999
g14
I00
sg29
I01
sg46
I01
sg15
I00
sbsg339
g0
(g53
g2
Ntp1000
Rp1001
(dp1002
g14
I00
sg29
I01
sg15
I00
sg57
g91
sg61
g60
sg59
g60
sbsg340
g0
(g250
g2
Ntp1003
Rp1004
(dp1005
g14
I00
sg29
I01
sg46
I01
sg15
I00
sbsg341
g0
(g42
g2
Ntp1006
Rp1007
(dp1008
g14
I00
sg29
I01
sg46
g608
sg15
I00
sbsg32
g381
sb(lp1009
g972
a(lp1010
Nag1009
ag1009
aag1010
assg585
g1010
sbsg31
g962
sbsS'ak7CaloL1L2L3'
p1011
g0
(g7
g2
Ntp1012
Rp1013
(dp1014
g11
(lp1015
g13
asg14
I00
sg15
I00
sg16
I52
sg17
g18
sg13
g0
(g19
g20
(lp1016
S'ak7CaloL1Offset'
p1017
aS'ak7CaloL2Relative'
p1018
aS'ak7CaloL3Absolute'
p1019
atp1020
Rp1021
(dp1022
g14
I00
sg29
I01
sg15
I00
sg30
I1
sbsg31
g1011
sg32
g33
sbsg653
g0
(g7
g2
Ntp1023
Rp1024
(dp1025
g11
(lp1026
g40
ag41
asg14
I00
sg15
I00
sg40
g0
(g42
g2
Ntp1027
Rp1028
(dp1029
g14
I00
sg29
I01
sg46
S'AK5PF'
p1030
sg15
I01
sbsg41
g0
(g42
g2
Ntp1031
Rp1032
(dp1033
g14
I00
sg29
I01
sg46
g364
sg15
I00
sbsg17
g52
sg16
I97
sg31
g653
sg32
g105
sbsS'kt4PFL1Offset'
p1034
g0
(g7
g2
Ntp1035
Rp1036
(dp1037
g11
(lp1038
g137
ag138
ag40
ag41
asg14
I00
sg15
I00
sg40
g0
(g42
g2
Ntp1039
Rp1040
(dp1041
g14
I00
sg29
I01
sg46
S'KT4PF'
p1042
sg15
I01
sbsg137
g0
(g143
g2
Ntp1043
Rp1044
(dp1045
g14
I00
sg29
I01
sg46
I4
sg15
I00
sbsg17
g52
sg41
g0
(g42
g2
Ntp1046
Rp1047
(dp1048
g14
I00
sg29
I01
sg46
g150
sg15
I00
sbsg138
g0
(g42
g2
Ntp1049
Rp1050
(dp1051
g14
I00
sg29
I01
sg46
g154
sg15
I00
sbsg16
I36
sg31
g1034
sg32
g155
sbsS'kt4PFL2L3Residual'
p1052
g0
(g7
g2
Ntp1053
Rp1054
(dp1055
g11
(lp1056
g13
asg14
I00
sg15
I00
sg16
I52
sg17
g18
sg13
g0
(g19
g20
(lp1057
g162
ag163
aS'kt4PFResidual'
p1058
atp1059
Rp1060
(dp1061
g14
I00
sg29
I01
sg15
I00
sg30
I1
sbsg31
g1052
sg32
g33
sbsg312
g0
(g7
g2
Ntp1062
Rp1063
(dp1064
g11
(lp1065
g40
ag41
asg14
I00
sg15
I00
sg40
g0
(g42
g2
Ntp1066
Rp1067
(dp1068
g14
I00
sg29
I01
sg46
S'AK5TRK'
p1069
sg15
I01
sbsg41
g0
(g42
g2
Ntp1070
Rp1071
(dp1072
g14
I00
sg29
I01
sg46
g104
sg15
I00
sbsg17
g612
sg16
I90
sg31
g312
sg32
g105
sbsS'kt4PFL1FastL2L3'
p1073
g0
(g7
g2
Ntp1074
Rp1075
(dp1076
g11
(lp1077
g13
asg14
I00
sg15
I00
sg16
I612
sg17
g52
sg13
g0
(g19
g20
(lp1078
g173
ag162
ag163
atp1079
Rp1080
(dp1081
g14
I00
sg29
I01
sg15
I00
sg30
I1
sbsg31
g1073
sg32
g33
sbsS'ak9PFL2L3'
p1082
g0
(g7
g2
Ntp1083
Rp1084
(dp1085
g11
(lp1086
g13
asg14
I00
sg15
I00
sg16
I52
sg17
g18
sg13
g0
(g19
g20
(lp1087
g924
ag925
atp1088
Rp1089
(dp1090
g14
I00
sg29
I01
sg15
I00
sg30
I1
sbsg31
g1082
sg32
g33
sbsS'ic5CaloL1L2L3'
p1091
g0
(g7
g2
Ntp1092
Rp1093
(dp1094
g11
(lp1095
g13
asg14
I00
sg15
I00
sg16
I52
sg17
g18
sg13
g0
(g19
g20
(lp1096
S'ic5CaloL1Offset'
p1097
ag849
ag850
atp1098
Rp1099
(dp1100
g14
I00
sg29
I01
sg15
I00
sg30
I1
sbsg31
g1091
sg32
g33
sbsg114
g0
(g7
g2
Ntp1101
Rp1102
(dp1103
g11
(lp1104
g40
ag41
asg14
I00
sg15
I00
sg40
g0
(g42
g2
Ntp1105
Rp1106
(dp1107
g14
I00
sg29
I01
sg46
S'KT6PF'
p1108
sg15
I01
sbsg41
g0
(g42
g2
Ntp1109
Rp1110
(dp1111
g14
I00
sg29
I01
sg46
g104
sg15
I00
sbsg17
g52
sg16
I138
sg31
g114
sg32
g105
sbsg731
g0
(g7
g2
Ntp1112
Rp1113
(dp1114
g11
(lp1115
S'offsetService'
p1116
ag40
ag41
asg14
I00
sg15
I00
sg40
g0
(g42
g2
Ntp1117
Rp1118
(dp1119
g14
I00
sg29
I01
sg46
S'AK4JPT'
p1120
sg15
I00
sbsg41
g0
(g42
g2
Ntp1121
Rp1122
(dp1123
g14
I00
sg29
I01
sg46
S'L1JPTOffset'
p1124
sg15
I00
sbsg17
g18
sg16
I52
sg31
g731
sg32
S'L1JPTOffsetCorrectionESProducer'
p1125
sg1116
g0
(g42
g2
Ntp1126
Rp1127
(dp1128
g14
I00
sg29
I01
sg46
g310
sg15
I00
sbsbsS'ic5PFL2L3L6'
p1129
g0
(g7
g2
Ntp1130
Rp1131
(dp1132
g11
(lp1133
g13
asg14
I00
sg15
I00
sg16
I755
sg17
g52
sg13
g0
(g19
g20
(lp1134
g262
ag263
aS'ic5PFL6SLB'
p1135
atp1136
Rp1137
(dp1138
g14
I00
sg29
I01
sg15
I00
sg30
I1
sbsg31
g1129
sg32
g33
sbsg879
g0
(g7
g2
Ntp1139
Rp1140
(dp1141
g11
(lp1142
g40
ag41
asg14
I00
sg15
I00
sg40
g0
(g42
g2
Ntp1143
Rp1144
(dp1145
g14
I00
sg29
I01
sg46
g863
sg15
I01
sbsg41
g0
(g42
g2
Ntp1146
Rp1147
(dp1148
g14
I00
sg29
I01
sg46
g364
sg15
I00
sbsg17
g52
sg16
I101
sg31
g879
sg32
g105
sbsS'ak5PFL2L3'
p1149
g0
(g7
g2
Ntp1150
Rp1151
(dp1152
g11
(lp1153
g13
asg14
I00
sg15
I00
sg16
I52
sg17
g18
sg13
g0
(g19
g20
(lp1154
g653
ag654
atp1155
Rp1156
(dp1157
g14
I00
sg29
I01
sg15
I00
sg30
I1
sbsg31
g1149
sg32
g33
sbsS'ic5CaloL2L3'
p1158
g0
(g7
g2
Ntp1159
Rp1160
(dp1161
g11
(lp1162
g13
asg14
I00
sg15
I00
sg16
I52
sg17
g18
sg13
g0
(g19
g20
(lp1163
g849
ag850
atp1164
Rp1165
(dp1166
g14
I00
sg29
I01
sg15
I00
sg30
I1
sbsg31
g1158
sg32
g33
sbsS'ak8PFCHSL1L2L3Residual'
p1167
g0
(g7
g2
Ntp1168
Rp1169
(dp1170
g11
(lp1171
g13
asg14
I00
sg15
I00
sg16
I52
sg17
g18
sg13
g0
(g19
g20
(lp1172
S'ak8PFCHSL1Offset'
p1173
aS'ak8PFCHSL2Relative'
p1174
ag215
aS'ak8PFCHSResidual'
p1175
atp1176
Rp1177
(dp1178
g14
I00
sg29
I01
sg15
I00
sg30
I1
sbsg31
g1167
sg32
g33
sbsS'ak1PFL1Offset'
p1179
g0
(g7
g2
Ntp1180
Rp1181
(dp1182
g11
(lp1183
g137
ag138
ag40
ag41
asg14
I00
sg15
I00
sg40
g0
(g42
g2
Ntp1184
Rp1185
(dp1186
g14
I00
sg29
I01
sg46
S'AK1PF'
p1187
sg15
I01
sbsg137
g0
(g143
g2
Ntp1188
Rp1189
(dp1190
g14
I00
sg29
I01
sg46
I4
sg15
I00
sbsg17
g52
sg41
g0
(g42
g2
Ntp1191
Rp1192
(dp1193
g14
I00
sg29
I01
sg46
g150
sg15
I00
sbsg138
g0
(g42
g2
Ntp1194
Rp1195
(dp1196
g14
I00
sg29
I01
sg46
g154
sg15
I00
sbsg16
I18
sg31
g1179
sg32
g155
sbsS'ak2PFCHSL2Relative'
p1197
g0
(g7
g2
Ntp1198
Rp1199
(dp1200
g11
(lp1201
g40
ag41
asg14
I00
sg15
I00
sg40
g0
(g42
g2
Ntp1202
Rp1203
(dp1204
g14
I00
sg29
I01
sg46
S'AK2PFchs'
p1205
sg15
I01
sbsg41
g0
(g42
g2
Ntp1206
Rp1207
(dp1208
g14
I00
sg29
I01
sg46
g364
sg15
I00
sbsg17
g52
sg16
I94
sg31
g1197
sg32
g105
sbsS'ak4PFL1FastL2L3Residual'
p1209
g0
(g7
g2
Ntp1210
Rp1211
(dp1212
g11
(lp1213
g13
asg14
I00
sg15
I00
sg16
I52
sg17
g18
sg13
g0
(g19
g20
(lp1214
g173
aS'ak4PFL2Relative'
p1215
aS'ak4PFL3Absolute'
p1216
aS'ak4PFResidual'
p1217
atp1218
Rp1219
(dp1220
g14
I00
sg29
I01
sg15
I00
sg30
I1
sbsg31
g1209
sg32
g33
sbsS'kt4CaloL1FastL2L3Residual'
p1221
g0
(g7
g2
Ntp1222
Rp1223
(dp1224
g11
(lp1225
g13
asg14
I00
sg15
I00
sg16
I52
sg17
g18
sg13
g0
(g19
g20
(lp1226
S'kt4CaloL1Fastjet'
p1227
aS'kt4CaloL2Relative'
p1228
aS'kt4CaloL3Absolute'
p1229
aS'kt4CaloResidual'
p1230
atp1231
Rp1232
(dp1233
g14
I00
sg29
I01
sg15
I00
sg30
I1
sbsg31
g1221
sg32
g33
sbsg1135
g0
(g7
g2
Ntp1234
Rp1235
(dp1236
g11
(lp1237
g232
ag233
ag234
ag40
ag41
asg14
I00
sg15
I00
sg40
g0
(g42
g2
Ntp1238
Rp1239
(dp1240
g14
I00
sg29
I01
sg46
g60
sg15
I00
sbsg232
g0
(g53
g2
Ntp1241
Rp1242
(dp1243
g14
I00
sg29
I01
sg15
I00
sg57
S'ic5PFJetsSoftElectronTagInfos'
p1244
sg61
g60
sg59
g60
sbsg17
g52
sg41
g0
(g42
g2
Ntp1245
Rp1246
(dp1247
g14
I00
sg29
I01
sg46
g245
sg15
I00
sbsg233
g0
(g53
g2
Ntp1248
Rp1249
(dp1250
g14
I00
sg29
I01
sg15
I00
sg57
S'ic5PFJetsSoftMuonTagInfos'
p1251
sg61
g60
sg59
g60
sbsg16
I202
sg234
g0
(g250
g2
Ntp1252
Rp1253
(dp1254
g14
I00
sg29
I01
sg46
I00
sg15
I00
sbsg31
g1135
sg32
g254
sbsS'ak3PFCHSL1Fastjet'
p1255
g0
(g7
g2
Ntp1256
Rp1257
(dp1258
g11
(lp1259
g39
ag40
ag41
asg14
I00
sg15
I00
sg40
g0
(g42
g2
Ntp1260
Rp1261
(dp1262
g14
I00
sg29
I01
sg46
S'AK3PFchs'
p1263
sg15
I01
sbsg41
g0
(g42
g2
Ntp1264
Rp1265
(dp1266
g14
I00
sg29
I01
sg46
g51
sg15
I00
sbsg17
g52
sg16
I67
sg39
g0
(g53
g2
Ntp1267
Rp1268
(dp1269
g14
I00
sg29
I01
sg15
I00
sg57
g91
sg59
g60
sg61
g60
sbsg31
g1255
sg32
g62
sbsg1229
g0
(g7
g2
Ntp1270
Rp1271
(dp1272
g11
(lp1273
g40
ag41
asg14
I00
sg15
I00
sg40
g0
(g42
g2
Ntp1274
Rp1275
(dp1276
g14
I00
sg29
I01
sg46
S'KT4Calo'
p1277
sg15
I01
sbsg41
g0
(g42
g2
Ntp1278
Rp1279
(dp1280
g14
I00
sg29
I01
sg46
g104
sg15
I00
sbsg17
g52
sg16
I115
sg31
g1229
sg32
g105
sbsS'ak5PFL1L2L3Residual'
p1281
g0
(g7
g2
Ntp1282
Rp1283
(dp1284
g11
(lp1285
g13
asg14
I00
sg15
I00
sg16
I52
sg17
g18
sg13
g0
(g19
g20
(lp1286
S'ak5PFL1Offset'
p1287
ag653
ag654
ag655
atp1288
Rp1289
(dp1290
g14
I00
sg29
I01
sg15
I00
sg30
I1
sbsg31
g1281
sg32
g33
sbsg742
g0
(g7
g2
Ntp1291
Rp1292
(dp1293
g11
(lp1294
g40
ag41
asg14
I00
sg15
I00
sg40
g0
(g42
g2
Ntp1295
Rp1296
(dp1297
g14
I00
sg29
I01
sg46
g276
sg15
I01
sbsg41
g0
(g42
g2
Ntp1298
Rp1299
(dp1300
g14
I00
sg29
I01
sg46
g364
sg15
I00
sbsg17
g52
sg16
I87
sg31
g742
sg32
g105
sbsg1175
g0
(g7
g2
Ntp1301
Rp1302
(dp1303
g11
(lp1304
g40
ag41
asg14
I00
sg15
I00
sg40
g0
(g42
g2
Ntp1305
Rp1306
(dp1307
g14
I00
sg29
I01
sg46
g223
sg15
I01
sbsg41
g0
(g42
g2
Ntp1308
Rp1309
(dp1310
g14
I00
sg29
I01
sg46
g303
sg15
I00
sbsg17
g52
sg16
I160
sg31
g1175
sg32
g105
sbsS'ak3PFCHSL1Offset'
p1311
g0
(g7
g2
Ntp1312
Rp1313
(dp1314
g11
(lp1315
g137
ag138
ag40
ag41
asg14
I00
sg15
I00
sg40
g0
(g42
g2
Ntp1316
Rp1317
(dp1318
g14
I00
sg29
I01
sg46
g1263
sg15
I01
sbsg137
g0
(g143
g2
Ntp1319
Rp1320
(dp1321
g14
I00
sg29
I01
sg46
I4
sg15
I00
sbsg17
g52
sg41
g0
(g42
g2
Ntp1322
Rp1323
(dp1324
g14
I00
sg29
I01
sg46
g150
sg15
I00
sbsg138
g0
(g42
g2
Ntp1325
Rp1326
(dp1327
g14
I00
sg29
I01
sg46
g154
sg15
I00
sbsg16
I23
sg31
g1311
sg32
g155
sbsS'ak8PFCHSL2L3'
p1328
g0
(g7
g2
Ntp1329
Rp1330
(dp1331
g11
(lp1332
g13
asg14
I00
sg15
I00
sg16
I52
sg17
g18
sg13
g0
(g19
g20
(lp1333
g1174
ag215
atp1334
Rp1335
(dp1336
g14
I00
sg29
I01
sg15
I00
sg30
I1
sbsg31
g1328
sg32
g33
sbsg128
g0
(g7
g2
Ntp1337
Rp1338
(dp1339
g11
(lp1340
g40
ag41
asg14
I00
sg15
I00
sg40
g0
(g42
g2
Ntp1341
Rp1342
(dp1343
g14
I00
sg29
I01
sg46
S'AK8PF'
p1344
sg15
I01
sbsg41
g0
(g42
g2
Ntp1345
Rp1346
(dp1347
g14
I00
sg29
I01
sg46
g303
sg15
I00
sbsg17
g52
sg16
I159
sg31
g128
sg32
g105
sbsg654
g0
(g7
g2
Ntp1348
Rp1349
(dp1350
g11
(lp1351
g40
ag41
asg14
I00
sg15
I00
sg40
g0
(g42
g2
Ntp1352
Rp1353
(dp1354
g14
I00
sg29
I01
sg46
g1030
sg15
I01
sbsg41
g0
(g42
g2
Ntp1355
Rp1356
(dp1357
g14
I00
sg29
I01
sg46
g104
sg15
I00
sbsg17
g52
sg16
I125
sg31
g654
sg32
g105
sbsS'CastorDbProducer'
p1358
g0
(g7
g2
Ntp1359
Rp1360
(dp1361
g11
(lp1362
S'appendToDataLabel'
p1363
asg14
I00
sg1363
g0
(g42
g2
Ntp1364
Rp1365
(dp1366
g14
I00
sg29
I01
sg46
g60
sg15
I00
sbsg15
I00
sg16
I52
sg17
g18
sg31
g1358
sg32
g1358
sbsS'ak7CaloL1FastL2L3L6'
p1367
g0
(g7
g2
Ntp1368
Rp1369
(dp1370
g11
(lp1371
g13
asg14
I00
sg15
I00
sg16
I760
sg17
g52
sg13
g0
(g19
g20
(lp1372
g1017
ag1018
ag1019
aS'ak7CaloL6SLB'
p1373
atp1374
Rp1375
(dp1376
g14
I00
sg29
I01
sg15
I00
sg30
I1
sbsg31
g1367
sg32
g33
sbsS'ak3PFL2L3'
p1377
g0
(g7
g2
Ntp1378
Rp1379
(dp1380
g11
(lp1381
g13
asg14
I00
sg15
I00
sg16
I52
sg17
g18
sg13
g0
(g19
g20
(lp1382
S'ak3PFL2Relative'
p1383
aS'ak3PFL3Absolute'
p1384
atp1385
Rp1386
(dp1387
g14
I00
sg29
I01
sg15
I00
sg30
I1
sbsg31
g1377
sg32
g33
sbsS'ak4PFCHSL2L3Residual'
p1388
g0
(g7
g2
Ntp1389
Rp1390
(dp1391
g11
(lp1392
g13
asg14
I00
sg15
I00
sg16
I52
sg17
g18
sg13
g0
(g19
g20
(lp1393
g600
aS'ak4PFCHSL3Absolute'
p1394
aS'ak4PFCHSResidual'
p1395
atp1396
Rp1397
(dp1398
g14
I00
sg29
I01
sg15
I00
sg30
I1
sbsg31
g1388
sg32
g33
sbsS'kt4PFL1Fastjet'
p1399
g0
(g7
g2
Ntp1400
Rp1401
(dp1402
g11
(lp1403
g39
ag40
ag41
asg14
I00
sg15
I00
sg40
g0
(g42
g2
Ntp1404
Rp1405
(dp1406
g14
I00
sg29
I01
sg46
g1042
sg15
I01
sbsg41
g0
(g42
g2
Ntp1407
Rp1408
(dp1409
g14
I00
sg29
I01
sg46
g51
sg15
I00
sbsg17
g52
sg16
I80
sg39
g0
(g53
g2
Ntp1410
Rp1411
(dp1412
g14
I00
sg29
I01
sg15
I00
sg57
g91
sg59
g60
sg61
g60
sbsg31
g1399
sg32
g62
sbsg1215
g0
(g7
g2
Ntp1413
Rp1414
(dp1415
g11
(lp1416
g40
ag41
asg14
I00
sg15
I00
sg40
g0
(g42
g2
Ntp1417
Rp1418
(dp1419
g14
I00
sg29
I01
sg46
S'AK4PF'
p1420
sg15
I01
sbsg41
g0
(g42
g2
Ntp1421
Rp1422
(dp1423
g14
I00
sg29
I01
sg46
g364
sg15
I00
sbsg17
g612
sg16
I76
sg31
g1215
sg32
g105
sbsS'ak10PFCHSL1FastjetL2L3Residual'
p1424
g0
(g7
g2
Ntp1425
Rp1426
(dp1427
g11
(lp1428
g13
asg14
I00
sg15
I00
sg16
I52
sg17
g18
sg13
g0
(g19
g20
(lp1429
S'ak10PFCHSL1Fastjet'
p1430
ag70
ag71
ag72
atp1431
Rp1432
(dp1433
g14
I00
sg29
I01
sg15
I00
sg30
I1
sbsg31
g1424
sg32
g33
sbsg263
g0
(g7
g2
Ntp1434
Rp1435
(dp1436
g11
(lp1437
g40
ag41
asg14
I00
sg15
I00
sg40
g0
(g42
g2
Ntp1438
Rp1439
(dp1440
g14
I00
sg29
I01
sg46
g786
sg15
I01
sbsg41
g0
(g42
g2
Ntp1441
Rp1442
(dp1443
g14
I00
sg29
I01
sg46
g104
sg15
I00
sbsg17
g52
sg16
I139
sg31
g263
sg32
g105
sbsS'ak7CaloL2L3L6'
p1444
g0
(g7
g2
Ntp1445
Rp1446
(dp1447
g11
(lp1448
g13
asg14
I00
sg15
I00
sg16
I740
sg17
g52
sg13
g0
(g19
g20
(lp1449
g1018
ag1019
ag1373
atp1450
Rp1451
(dp1452
g14
I00
sg29
I01
sg15
I00
sg30
I1
sbsg31
g1444
sg32
g33
sbsS'siStripQualityESProducer'
p1453
g0
(g7
g2
Ntp1454
Rp1455
(dp1456
g11
(lp1457
g1363
aS'PrintDebugOutput'
p1458
aS'ThresholdForReducedGranularity'
p1459
aS'UseEmptyRunInfo'
p1460
aS'ReduceGranularity'
p1461
aS'ListOfRecordToMerge'
p1462
asg14
I00
sg1363
g0
(g42
g2
Ntp1463
Rp1464
(dp1465
g14
I00
sg29
I01
sg46
g60
sg15
I00
sbsg15
I01
sg16
I52
sg17
g18
sg1459
g0
(g489
g2
Ntp1466
Rp1467
(dp1468
g14
I00
sg29
I01
sg46
F0.3
sg15
I00
sbsg31
g1453
sg1460
g0
(g250
g2
Ntp1469
Rp1470
(dp1471
g14
I00
sg29
I01
sg46
I00
sg15
I00
sbsg1461
g0
(g250
g2
Ntp1472
Rp1473
(dp1474
g14
I00
sg29
I01
sg46
I00
sg15
I00
sbsg1462
g0
(cFWCore.ParameterSet.Types
VPSet
p1475
g20
(lp1476
g0
(g424
g2
Ntp1477
Rp1478
(dp1479
g14
I00
sg29
I01
sg15
I00
sg685
g0
(g42
g2
Ntp1480
Rp1481
(dp1482
g14
I00
sg29
I01
sg46
S'SiStripDetVOffRcd'
p1483
sg15
I00
sbsS'tag'
p1484
g0
(g42
g2
Ntp1485
Rp1486
(dp1487
g14
I00
sg29
I01
sg46
g60
sg15
I00
sbsg11
(lp1488
g685
ag1484
asbag0
(g424
g2
Ntp1489
Rp1490
(dp1491
g14
I00
sg29
I01
sg15
I00
sg685
g0
(g42
g2
Ntp1492
Rp1493
(dp1494
g14
I00
sg29
I01
sg46
S'SiStripDetCablingRcd'
p1495
sg15
I00
sbsg1484
g0
(g42
g2
Ntp1496
Rp1497
(dp1498
g14
I00
sg29
I01
sg46
g60
sg15
I00
sbsg11
(lp1499
g685
ag1484
asbag0
(g424
g2
Ntp1500
Rp1501
(dp1502
g14
I00
sg29
I01
sg15
I00
sg685
g0
(g42
g2
Ntp1503
Rp1504
(dp1505
g14
I00
sg29
I01
sg46
S'RunInfoRcd'
p1506
sg15
I00
sbsg1484
g0
(g42
g2
Ntp1507
Rp1508
(dp1509
g14
I00
sg29
I01
sg46
g60
sg15
I00
sbsg11
(lp1510
g685
ag1484
asbag0
(g424
g2
Ntp1511
Rp1512
(dp1513
g14
I00
sg29
I01
sg15
I00
sg685
g0
(g42
g2
Ntp1514
Rp1515
(dp1516
g14
I00
sg29
I01
sg46
S'SiStripBadChannelRcd'
p1517
sg15
I00
sbsg1484
g0
(g42
g2
Ntp1518
Rp1519
(dp1520
g14
I00
sg29
I01
sg46
g60
sg15
I00
sbsg11
(lp1521
g685
ag1484
asbag0
(g424
g2
Ntp1522
Rp1523
(dp1524
g14
I00
sg29
I01
sg15
I00
sg685
g0
(g42
g2
Ntp1525
Rp1526
(dp1527
g14
I00
sg29
I01
sg46
S'SiStripBadFiberRcd'
p1528
sg15
I00
sbsg1484
g0
(g42
g2
Ntp1529
Rp1530
(dp1531
g14
I00
sg29
I01
sg46
g60
sg15
I00
sbsg11
(lp1532
g685
ag1484
asbag0
(g424
g2
Ntp1533
Rp1534
(dp1535
g14
I00
sg29
I01
sg15
I00
sg685
g0
(g42
g2
Ntp1536
Rp1537
(dp1538
g14
I00
sg29
I01
sg46
S'SiStripBadModuleRcd'
p1539
sg15
I00
sbsg1484
g0
(g42
g2
Ntp1540
Rp1541
(dp1542
g14
I00
sg29
I01
sg46
g60
sg15
I00
sbsg11
(lp1543
g685
ag1484
asbag0
(g424
g2
Ntp1544
Rp1545
(dp1546
g14
I00
sg29
I01
sg15
I00
sg685
g0
(g42
g2
Ntp1547
Rp1548
(dp1549
g14
I00
sg29
I01
sg46
S'SiStripBadStripRcd'
p1550
sg15
I00
sbsg1484
g0
(g42
g2
Ntp1551
Rp1552
(dp1553
g14
I00
sg29
I01
sg46
g60
sg15
I00
sbsg11
(lp1554
g685
ag1484
asbatp1555
Rp1556
(dp1557
g14
I00
sg29
I01
sg15
I00
sg30
I1
sbsg32
S'SiStripQualityESProducer'
p1558
sg1458
g0
(g250
g2
Ntp1559
Rp1560
(dp1561
g14
I00
sg29
I01
sg46
I00
sg15
I00
sbsbsS'ak4TrackL2L3'
p1562
g0
(g7
g2
Ntp1563
Rp1564
(dp1565
g11
(lp1566
g13
asg14
I00
sg15
I00
sg16
I52
sg17
g18
sg13
g0
(g19
g20
(lp1567
g311
ag312
atp1568
Rp1569
(dp1570
g14
I00
sg29
I01
sg15
I00
sg30
I1
sbsg31
g1562
sg32
g33
sbsg937
g0
(g7
g2
Ntp1571
Rp1572
(dp1573
g11
(lp1574
g40
ag41
asg14
I00
sg15
I00
sg40
g0
(g42
g2
Ntp1575
Rp1576
(dp1577
g14
I00
sg29
I01
sg46
g1187
sg15
I01
sbsg41
g0
(g42
g2
Ntp1578
Rp1579
(dp1580
g14
I00
sg29
I01
sg46
g364
sg15
I00
sbsg17
g52
sg16
I91
sg31
g937
sg32
g105
sbsS'makeUpdatedPatJets'
p1581
g0
(cFWCore.ParameterSet.SequenceTypes
Sequence
p1582
g2
Ntp1583
Rp1584
(dp1585
g14
I00
sg321
g0
(g322
g2
Ntp1586
Rp1587
(dp1588
g326
(lp1589
g0
(g328
g2
Ntp1590
Rp1591
(dp1592
g11
(lp1593
g333
ag334
ag335
ag336
ag337
ag338
ag339
ag340
ag341
ag342
asg14
I00
sg342
g0
(g42
g2
Ntp1594
Rp1595
(dp1596
g14
I00
sg29
I01
sg46
g346
sg15
I00
sbsg334
g0
(g250
g2
Ntp1597
Rp1598
(dp1599
g14
I00
sg29
I01
sg46
I00
sg15
I00
sbsg15
I00
sg333
g0
(g53
g2
Ntp1600
Rp1601
(dp1602
g14
I00
sg29
I01
sg15
I00
sg57
S'slimmedJets'
p1603
sg61
g60
sg59
g60
sbsg17
S'/cvmfs/cms.cern.ch/slc6_amd64_gcc630/cms/cmssw/CMSSW_9_4_2/python/PhysicsTools/PatAlgos/producersLayer1/jetUpdater_cff.py'
p1604
sg335
g0
(g42
g2
Ntp1605
Rp1606
(dp1607
g14
I00
sg29
I01
sg46
g51
sg15
I00
sbsg336
g0
(g53
g2
Ntp1608
Rp1609
(dp1610
g14
I00
sg29
I01
sg15
I00
sg57
g361
sg61
g60
sg59
g60
sbsg31
S'updatedPatJetCorrFactors'
p1611
sg337
g0
(g19
g20
(lp1612
g51
ag364
ag104
atp1613
Rp1614
(dp1615
g14
I00
sg29
I01
sg15
I00
sg30
I1
sbsg16
I8
sg338
g0
(g250
g2
Ntp1616
Rp1617
(dp1618
g14
I00
sg29
I01
sg46
I01
sg15
I00
sbsg339
g0
(g53
g2
Ntp1619
Rp1620
(dp1621
g14
I00
sg29
I01
sg15
I00
sg57
g91
sg59
g60
sg61
g60
sbsg340
g0
(g250
g2
Ntp1622
Rp1623
(dp1624
g14
I00
sg29
I01
sg46
I01
sg15
I00
sbsg341
g0
(g42
g2
Ntp1625
Rp1626
(dp1627
g14
I00
sg29
I01
sg46
g608
sg15
I00
sbsg32
g381
sbag0
(g328
g2
Ntp1628
Rp1629
(dp1630
g11
(lp1631
g386
ag387
ag391
ag389
ag390
ag388
ag392
ag393
ag394
asg14
I00
sg15
I00
sg387
g0
(g53
g2
Ntp1632
Rp1633
(dp1634
g14
I00
sg29
I01
sg15
I00
sg57
g1603
sg61
g60
sg59
g60
sbsg17
S'/cvmfs/cms.cern.ch/slc6_amd64_gcc630/cms/cmssw/CMSSW_9_4_2/python/PhysicsTools/PatAlgos/producersLayer1/jetUpdater_cfi.py'
p1635
sg391
g0
(g398
g20
(lp1636
tp1637
Rp1638
(dp1639
g14
I00
sg29
I01
sg15
I00
sbsg389
g0
(g250
g2
Ntp1640
Rp1641
(dp1642
g14
I00
sg29
I01
sg46
I01
sg15
I00
sbsg31
S'updatedPatJets'
p1643
sg16
I39
sg390
g0
(g398
g20
(lp1644
tp1645
Rp1646
(dp1647
g14
I00
sg29
I01
sg15
I00
sbsg388
g0
(g398
g20
(lp1648
g0
(g53
g2
Ntp1649
Rp1650
(dp1651
g14
I00
sg29
I01
sg15
I00
sg57
g1611
sg61
g60
sg59
g60
sbatp1652
Rp1653
(dp1654
g14
I00
sg29
I01
sg15
I00
sbsg392
g0
(g250
g2
Ntp1655
Rp1656
(dp1657
g14
I00
sg29
I01
sg46
I01
sg15
I00
sbsg393
g0
(g250
g2
Ntp1658
Rp1659
(dp1660
g14
I00
sg29
I01
sg46
I01
sg15
I00
sbsg394
g0
(g424
g2
Ntp1661
Rp1662
(dp1663
g14
I00
sg29
I01
sg428
g0
(g424
g2
Ntp1664
Rp1665
(dp1666
g14
I00
sg29
I01
sg333
g0
(g398
g20
(lp1667
g60
atp1668
Rp1669
(dp1670
g14
I00
sg29
I01
sg15
I00
sbsg15
I00
sg11
(lp1671
g333
asbsg15
I00
sg437
g0
(g424
g2
Ntp1672
Rp1673
(dp1674
g14
I00
sg29
I01
sg333
g0
(g398
g20
(lp1675
g60
atp1676
Rp1677
(dp1678
g14
I00
sg29
I01
sg15
I00
sbsg15
I00
sg11
(lp1679
g333
asbsg446
g0
(g424
g2
Ntp1680
Rp1681
(dp1682
g14
I00
sg29
I01
sg333
g0
(g398
g20
(lp1683
g60
atp1684
Rp1685
(dp1686
g14
I00
sg29
I01
sg15
I00
sbsg15
I00
sg11
(lp1687
g333
asbsg11
(lp1688
g428
ag437
ag446
ag456
ag457
ag458
asg456
g0
(g424
g2
Ntp1689
Rp1690
(dp1691
g14
I00
sg29
I01
sg333
g0
(g398
g20
(lp1692
g60
atp1693
Rp1694
(dp1695
g14
I00
sg29
I01
sg15
I00
sbsg15
I00
sg11
(lp1696
g333
asbsg457
g0
(g19
g20
(lp1697
tp1698
Rp1699
(dp1700
g14
I00
sg29
I01
sg15
I00
sg30
I1
sbsg458
g0
(g19
g20
(lp1701
tp1702
Rp1703
(dp1704
g14
I00
sg29
I01
sg15
I00
sg30
I1
sbsbsg386
g0
(g250
g2
Ntp1705
Rp1706
(dp1707
g14
I00
sg29
I01
sg46
I00
sg15
I00
sbsg32
g478
sbasbsg31
g1581
sg15
I00
sg578
g0
(g579
g2
Ntp1708
Rp1709
(dp1710
g583
(dp1711
sg585
(lp1712
Nag1712
ag1712
asbsbsS'_Process__modifiers'
p1713
(tsg665
g0
(g7
g2
Ntp1714
Rp1715
(dp1716
g11
(lp1717
g40
ag41
asg14
I00
sg15
I00
sg40
g0
(g42
g2
Ntp1718
Rp1719
(dp1720
g14
I00
sg29
I01
sg46
g84
sg15
I01
sbsg41
g0
(g42
g2
Ntp1721
Rp1722
(dp1723
g14
I00
sg29
I01
sg46
g364
sg15
I00
sbsg17
g52
sg16
I102
sg31
g665
sg32
g105
sbsS'ak9PFCHSL2L3'
p1724
g0
(g7
g2
Ntp1725
Rp1726
(dp1727
g11
(lp1728
g13
asg14
I00
sg15
I00
sg16
I52
sg17
g18
sg13
g0
(g19
g20
(lp1729
g906
aS'ak9PFCHSL3Absolute'
p1730
atp1731
Rp1732
(dp1733
g14
I00
sg29
I01
sg15
I00
sg30
I1
sbsg31
g1724
sg32
g33
sbsS'_Process__esproducers'
p1734
(dp1735
S'ak6PFResidual'
p1736
g0
(g7
g2
Ntp1737
Rp1738
(dp1739
g11
(lp1740
g40
ag41
asg14
I00
sg15
I00
sg40
g0
(g42
g2
Ntp1741
Rp1742
(dp1743
g14
I00
sg29
I01
sg46
S'AK6PF'
p1744
sg15
I01
sbsg41
g0
(g42
g2
Ntp1745
Rp1746
(dp1747
g14
I00
sg29
I01
sg46
g303
sg15
I00
sbsg17
g52
sg16
I155
sg31
g1736
sg32
g105
sbsg1221
g1223
sg806
g0
(g7
g2
Ntp1748
Rp1749
(dp1750
g11
(lp1751
g40
ag41
asg14
I00
sg15
I00
sg40
g0
(g42
g2
Ntp1752
Rp1753
(dp1754
g14
I00
sg29
I01
sg46
g1263
sg15
I01
sbsg41
g0
(g42
g2
Ntp1755
Rp1756
(dp1757
g14
I00
sg29
I01
sg46
g364
sg15
I00
sbsg17
g52
sg16
I96
sg31
g806
sg32
g105
sbsS'ak9PFCHSL1Offset'
p1758
g0
(g7
g2
Ntp1759
Rp1760
(dp1761
g11
(lp1762
g137
ag138
ag40
ag41
asg14
I00
sg15
I00
sg40
g0
(g42
g2
Ntp1763
Rp1764
(dp1765
g14
I00
sg29
I01
sg46
g914
sg15
I01
sbsg137
g0
(g143
g2
Ntp1766
Rp1767
(dp1768
g14
I00
sg29
I01
sg46
I4
sg15
I00
sbsg17
g52
sg41
g0
(g42
g2
Ntp1769
Rp1770
(dp1771
g14
I00
sg29
I01
sg46
g150
sg15
I00
sbsg138
g0
(g42
g2
Ntp1772
Rp1773
(dp1774
g14
I00
sg29
I01
sg46
g154
sg15
I00
sbsg16
I33
sg31
g1758
sg32
g155
sbsg6
g9
sg34
g36
sg63
g65
sS'ak7CaloL2L3'
p1775
g0
(g7
g2
Ntp1776
Rp1777
(dp1778
g11
(lp1779
g13
asg14
I00
sg15
I00
sg16
I52
sg17
g18
sg13
g0
(g19
g20
(lp1780
g1018
ag1019
atp1781
Rp1782
(dp1783
g14
I00
sg29
I01
sg15
I00
sg30
I1
sbsg31
g1775
sg32
g33
sbsg1395
g0
(g7
g2
Ntp1784
Rp1785
(dp1786
g11
(lp1787
g40
ag41
asg14
I00
sg15
I00
sg40
g0
(g42
g2
Ntp1788
Rp1789
(dp1790
g14
I00
sg29
I01
sg46
g608
sg15
I01
sbsg41
g0
(g42
g2
Ntp1791
Rp1792
(dp1793
g14
I00
sg29
I01
sg46
g303
sg15
I00
sbsg17
g612
sg16
I99
sg31
g1395
sg32
g105
sbsS'ak2PFCHSL2L3Residual'
p1794
g0
(g7
g2
Ntp1795
Rp1796
(dp1797
g11
(lp1798
g13
asg14
I00
sg15
I00
sg16
I52
sg17
g18
sg13
g0
(g19
g20
(lp1799
g1197
aS'ak2PFCHSL3Absolute'
p1800
aS'ak2PFCHSResidual'
p1801
atp1802
Rp1803
(dp1804
g14
I00
sg29
I01
sg15
I00
sg30
I1
sbsg31
g1794
sg32
g33
sbsS'kt6CaloL1L2L3'
p1805
g0
(g7
g2
Ntp1806
Rp1807
(dp1808
g11
(lp1809
g13
asg14
I00
sg15
I00
sg16
I52
sg17
g18
sg13
g0
(g19
g20
(lp1810
g741
ag742
ag268
atp1811
Rp1812
(dp1813
g14
I00
sg29
I01
sg15
I00
sg30
I1
sbsg31
g1805
sg32
g33
sbsg92
g94
sS'ic5CaloL1FastL2L3'
p1814
g0
(g7
g2
Ntp1815
Rp1816
(dp1817
g11
(lp1818
g13
asg14
I00
sg15
I00
sg16
I605
sg17
g52
sg13
g0
(g19
g20
(lp1819
g310
ag849
ag850
atp1820
Rp1821
(dp1822
g14
I00
sg29
I01
sg15
I00
sg30
I1
sbsg31
g1814
sg32
g33
sbsS'ak5PFCHSL1Offset'
p1823
g0
(g7
g2
Ntp1824
Rp1825
(dp1826
g11
(lp1827
g137
ag138
ag40
ag41
asg14
I00
sg15
I00
sg40
g0
(g42
g2
Ntp1828
Rp1829
(dp1830
g14
I00
sg29
I01
sg46
S'AK5PFchs'
p1831
sg15
I01
sbsg137
g0
(g143
g2
Ntp1832
Rp1833
(dp1834
g14
I00
sg29
I01
sg46
I4
sg15
I00
sbsg17
g52
sg41
g0
(g42
g2
Ntp1835
Rp1836
(dp1837
g14
I00
sg29
I01
sg46
g150
sg15
I00
sbsg138
g0
(g42
g2
Ntp1838
Rp1839
(dp1840
g14
I00
sg29
I01
sg46
g154
sg15
I00
sbsg16
I25
sg31
g1823
sg32
g155
sbsS'ak5PFCHSL1L2L3Residual'
p1841
g0
(g7
g2
Ntp1842
Rp1843
(dp1844
g11
(lp1845
g13
asg14
I00
sg15
I00
sg16
I52
sg17
g18
sg13
g0
(g19
g20
(lp1846
g1823
ag184
ag185
ag186
atp1847
Rp1848
(dp1849
g14
I00
sg29
I01
sg15
I00
sg30
I1
sbsg31
g1841
sg32
g33
sbsg827
g0
(g7
g2
Ntp1850
Rp1851
(dp1852
g11
(lp1853
g40
ag41
asg14
I00
sg15
I00
sg40
g0
(g42
g2
Ntp1854
Rp1855
(dp1856
g14
I00
sg29
I01
sg46
g276
sg15
I01
sbsg41
g0
(g42
g2
Ntp1857
Rp1858
(dp1859
g14
I00
sg29
I01
sg46
g303
sg15
I00
sbsg17
g52
sg16
I144
sg31
g827
sg32
g105
sbsg1034
g1036
sS'ak4PFCHSL1L2L3'
p1860
g0
(g7
g2
Ntp1861
Rp1862
(dp1863
g11
(lp1864
g13
asg14
I00
sg15
I00
sg16
I52
sg17
g18
sg13
g0
(g19
g20
(lp1865
S'ak4PFCHSL1Offset'
p1866
ag600
ag1394
atp1867
Rp1868
(dp1869
g14
I00
sg29
I01
sg15
I00
sg30
I1
sbsg31
g1860
sg32
g33
sbsS'ak10PFL2L3'
p1870
g0
(g7
g2
Ntp1871
Rp1872
(dp1873
g11
(lp1874
g13
asg14
I00
sg15
I00
sg16
I52
sg17
g18
sg13
g0
(g19
g20
(lp1875
g594
ag595
atp1876
Rp1877
(dp1878
g14
I00
sg29
I01
sg15
I00
sg30
I1
sbsg31
g1870
sg32
g33
sbsS'ak3PFL1L2L3Residual'
p1879
g0
(g7
g2
Ntp1880
Rp1881
(dp1882
g11
(lp1883
g13
asg14
I00
sg15
I00
sg16
I52
sg17
g18
sg13
g0
(g19
g20
(lp1884
S'ak3PFL1Offset'
p1885
ag1383
ag1384
aS'ak3PFResidual'
p1886
atp1887
Rp1888
(dp1889
g14
I00
sg29
I01
sg15
I00
sg30
I1
sbsg31
g1879
sg32
g33
sbsS'ak2PFCHSL1Offset'
p1890
g0
(g7
g2
Ntp1891
Rp1892
(dp1893
g11
(lp1894
g137
ag138
ag40
ag41
asg14
I00
sg15
I00
sg40
g0
(g42
g2
Ntp1895
Rp1896
(dp1897
g14
I00
sg29
I01
sg46
g1205
sg15
I01
sbsg137
g0
(g143
g2
Ntp1898
Rp1899
(dp1900
g14
I00
sg29
I01
sg46
I4
sg15
I00
sbsg17
g52
sg41
g0
(g42
g2
Ntp1901
Rp1902
(dp1903
g14
I00
sg29
I01
sg46
g150
sg15
I00
sbsg138
g0
(g42
g2
Ntp1904
Rp1905
(dp1906
g14
I00
sg29
I01
sg46
g154
sg15
I00
sbsg16
I21
sg31
g1890
sg32
g155
sbsg715
g717
sS'ak7PFCHSL1FastL2L3'
p1907
g0
(g7
g2
Ntp1908
Rp1909
(dp1910
g11
(lp1911
g13
asg14
I00
sg15
I00
sg16
I610
sg17
g52
sg13
g0
(g19
g20
(lp1912
S'ak4PFCHSL1Fastjet'
p1913
ag665
ag666
atp1914
Rp1915
(dp1916
g14
I00
sg29
I01
sg15
I00
sg30
I1
sbsg31
g1907
sg32
g33
sbsg1230
g0
(g7
g2
Ntp1917
Rp1918
(dp1919
g11
(lp1920
g40
ag41
asg14
I00
sg15
I00
sg40
g0
(g42
g2
Ntp1921
Rp1922
(dp1923
g14
I00
sg29
I01
sg46
g1277
sg15
I01
sbsg41
g0
(g42
g2
Ntp1924
Rp1925
(dp1926
g14
I00
sg29
I01
sg46
g303
sg15
I00
sbsg17
g52
sg16
I143
sg31
g1230
sg32
g105
sbsS'ak2PFCHSL1FastjetL2L3Residual'
p1927
g0
(g7
g2
Ntp1928
Rp1929
(dp1930
g11
(lp1931
g13
asg14
I00
sg15
I00
sg16
I52
sg17
g18
sg13
g0
(g19
g20
(lp1932
S'ak2PFCHSL1Fastjet'
p1933
ag1197
ag1800
ag1801
atp1934
Rp1935
(dp1936
g14
I00
sg29
I01
sg15
I00
sg30
I1
sbsg31
g1927
sg32
g33
sbsg1228
g0
(g7
g2
Ntp1937
Rp1938
(dp1939
g11
(lp1940
g40
ag41
asg14
I00
sg15
I00
sg40
g0
(g42
g2
Ntp1941
Rp1942
(dp1943
g14
I00
sg29
I01
sg46
g1277
sg15
I01
sbsg41
g0
(g42
g2
Ntp1944
Rp1945
(dp1946
g14
I00
sg29
I01
sg46
g364
sg15
I00
sbsg17
g52
sg16
I86
sg31
g1228
sg32
g105
sbsS'ak1PFL1Fastjet'
p1947
g0
(g7
g2
Ntp1948
Rp1949
(dp1950
g11
(lp1951
g39
ag40
ag41
asg14
I00
sg15
I00
sg40
g0
(g42
g2
Ntp1952
Rp1953
(dp1954
g14
I00
sg29
I01
sg46
g1187
sg15
I01
sbsg41
g0
(g42
g2
Ntp1955
Rp1956
(dp1957
g14
I00
sg29
I01
sg46
g51
sg15
I00
sbsg17
g52
sg16
I62
sg39
g0
(g53
g2
Ntp1958
Rp1959
(dp1960
g14
I00
sg29
I01
sg15
I00
sg57
g91
sg59
g60
sg61
g60
sbsg31
g1947
sg32
g62
sbsg742
g1292
sS'ak4JPTL2L3'
p1961
g0
(g7
g2
Ntp1962
Rp1963
(dp1964
g11
(lp1965
g13
asg14
I00
sg15
I00
sg16
I52
sg17
g18
sg13
g0
(g19
g20
(lp1966
g22
ag23
ag24
atp1967
Rp1968
(dp1969
g14
I00
sg29
I01
sg15
I00
sg30
I1
sbsg31
g1961
sg32
g33
sbsg127
g0
(g7
g2
Ntp1970
Rp1971
(dp1972
g11
(lp1973
g40
ag41
asg14
I00
sg15
I00
sg40
g0
(g42
g2
Ntp1974
Rp1975
(dp1976
g14
I00
sg29
I01
sg46
g1344
sg15
I01
sbsg41
g0
(g42
g2
Ntp1977
Rp1978
(dp1979
g14
I00
sg29
I01
sg46
g104
sg15
I00
sbsg17
g52
sg16
I131
sg31
g127
sg32
g105
sbsS'kt4CaloL1L2L3'
p1980
g0
(g7
g2
Ntp1981
Rp1982
(dp1983
g11
(lp1984
g13
asg14
I00
sg15
I00
sg16
I52
sg17
g18
sg13
g0
(g19
g20
(lp1985
S'kt4CaloL1Offset'
p1986
ag1228
ag1229
atp1987
Rp1988
(dp1989
g14
I00
sg29
I01
sg15
I00
sg30
I1
sbsg31
g1980
sg32
g33
sbsg119
g121
sg1052
g1054
sg1367
g1369
sg132
g134
sS'ak4PFL1FastL2L3L6'
p1990
g0
(g7
g2
Ntp1991
Rp1992
(dp1993
g11
(lp1994
g13
asg14
I00
sg15
I00
sg16
I252
sg17
g612
sg13
g0
(g19
g20
(lp1995
g173
ag1215
ag1216
aS'ak4PFL6SLB'
p1996
atp1997
Rp1998
(dp1999
g14
I00
sg29
I01
sg15
I00
sg30
I1
sbsg31
g1990
sg32
g33
sbsS'ak1PFCHSResidual'
p2000
g0
(g7
g2
Ntp2001
Rp2002
(dp2003
g11
(lp2004
g40
ag41
asg14
I00
sg15
I00
sg40
g0
(g42
g2
Ntp2005
Rp2006
(dp2007
g14
I00
sg29
I01
sg46
g839
sg15
I01
sbsg41
g0
(g42
g2
Ntp2008
Rp2009
(dp2010
g14
I00
sg29
I01
sg46
g303
sg15
I00
sbsg17
g52
sg16
I148
sg31
g2000
sg32
g105
sbsS'kt6CaloL2L3L6'
p2011
g0
(g7
g2
Ntp2012
Rp2013
(dp2014
g11
(lp2015
g13
asg14
I00
sg15
I00
sg16
I744
sg17
g52
sg13
g0
(g19
g20
(lp2016
g742
ag268
ag743
atp2017
Rp2018
(dp2019
g14
I00
sg29
I01
sg15
I00
sg30
I1
sbsg31
g2011
sg32
g33
sbsg594
g0
(g7
g2
Ntp2020
Rp2021
(dp2022
g11
(lp2023
g40
ag41
asg14
I00
sg15
I00
sg40
g0
(g42
g2
Ntp2024
Rp2025
(dp2026
g14
I00
sg29
I01
sg46
g772
sg15
I01
sbsg41
g0
(g42
g2
Ntp2027
Rp2028
(dp2029
g14
I00
sg29
I01
sg46
g364
sg15
I00
sbsg17
g52
sg16
I107
sg31
g594
sg32
g105
sbsS'ak7PFL1FastL2L3'
p2030
g0
(g7
g2
Ntp2031
Rp2032
(dp2033
g11
(lp2034
g13
asg14
I00
sg15
I00
sg16
I608
sg17
g52
sg13
g0
(g19
g20
(lp2035
g173
ag879
ag880
atp2036
Rp2037
(dp2038
g14
I00
sg29
I01
sg15
I00
sg30
I1
sbsg31
g2030
sg32
g33
sbsg156
g158
sS'ic5CaloL1Fastjet'
p2039
g0
(g7
g2
Ntp2040
Rp2041
(dp2042
g11
(lp2043
g39
ag40
ag41
asg14
I00
sg15
I00
sg40
g0
(g42
g2
Ntp2044
Rp2045
(dp2046
g14
I00
sg29
I01
sg46
S'IC5Calo'
p2047
sg15
I01
sbsg41
g0
(g42
g2
Ntp2048
Rp2049
(dp2050
g14
I00
sg29
I01
sg46
g51
sg15
I00
sbsg17
g52
sg16
I52
sg39
g0
(g53
g2
Ntp2051
Rp2052
(dp2053
g14
I00
sg29
I01
sg15
I00
sg57
g58
sg59
g60
sg61
g60
sbsg31
g2039
sg32
g62
sbsS'ak4PFCHSL1FastL2L3Residual'
p2054
g0
(g7
g2
Ntp2055
Rp2056
(dp2057
g11
(lp2058
g13
asg14
I00
sg15
I00
sg16
I52
sg17
g18
sg13
g0
(g19
g20
(lp2059
g1913
ag600
ag1394
ag1395
atp2060
Rp2061
(dp2062
g14
I00
sg29
I01
sg15
I00
sg30
I1
sbsg31
g2054
sg32
g33
sbsg178
g180
sS'ak8PFCHSL2L3Residual'
p2063
g0
(g7
g2
Ntp2064
Rp2065
(dp2066
g11
(lp2067
g13
asg14
I00
sg15
I00
sg16
I52
sg17
g18
sg13
g0
(g19
g20
(lp2068
g1174
ag215
ag1175
atp2069
Rp2070
(dp2071
g14
I00
sg29
I01
sg15
I00
sg30
I1
sbsg31
g2063
sg32
g33
sbsS'ak2PFCHSL1L2L3Residual'
p2072
g0
(g7
g2
Ntp2073
Rp2074
(dp2075
g11
(lp2076
g13
asg14
I00
sg15
I00
sg16
I52
sg17
g18
sg13
g0
(g19
g20
(lp2077
g1890
ag1197
ag1800
ag1801
atp2078
Rp2079
(dp2080
g14
I00
sg29
I01
sg15
I00
sg30
I1
sbsg31
g2072
sg32
g33
sbsg190
g192
sg211
g0
(g7
g2
Ntp2081
Rp2082
(dp2083
g11
(lp2084
g40
ag41
asg14
I00
sg15
I00
sg40
g0
(g42
g2
Ntp2085
Rp2086
(dp2087
g14
I00
sg29
I01
sg46
g142
sg15
I00
sbsg41
g0
(g42
g2
Ntp2088
Rp2089
(dp2090
g14
I00
sg29
I01
sg46
g303
sg15
I00
sbsg17
g18
sg16
I52
sg31
g211
sg32
g105
sbsg210
g0
(g7
g2
Ntp2091
Rp2092
(dp2093
g11
(lp2094
g40
ag41
asg14
I00
sg15
I00
sg40
g0
(g42
g2
Ntp2095
Rp2096
(dp2097
g14
I00
sg29
I01
sg46
g142
sg15
I00
sbsg41
g0
(g42
g2
Ntp2098
Rp2099
(dp2100
g14
I00
sg29
I01
sg46
g104
sg15
I00
sbsg17
g18
sg16
I52
sg31
g210
sg32
g105
sbsS'kt4CaloL1FastL2L3L6'
p2101
g0
(g7
g2
Ntp2102
Rp2103
(dp2104
g11
(lp2105
g13
asg14
I00
sg15
I00
sg16
I762
sg17
g52
sg13
g0
(g19
g20
(lp2106
g1986
ag1228
ag1229
aS'kt4CaloL6SLB'
p2107
atp2108
Rp2109
(dp2110
g14
I00
sg29
I01
sg15
I00
sg30
I1
sbsg31
g2101
sg32
g33
sbsg203
g205
sS'ak3PFL1Fastjet'
p2111
g0
(g7
g2
Ntp2112
Rp2113
(dp2114
g11
(lp2115
g39
ag40
ag41
asg14
I00
sg15
I00
sg40
g0
(g42
g2
Ntp2116
Rp2117
(dp2118
g14
I00
sg29
I01
sg46
S'AK3PF'
p2119
sg15
I01
sbsg41
g0
(g42
g2
Ntp2120
Rp2121
(dp2122
g14
I00
sg29
I01
sg46
g51
sg15
I00
sbsg17
g52
sg16
I66
sg39
g0
(g53
g2
Ntp2123
Rp2124
(dp2125
g14
I00
sg29
I01
sg15
I00
sg57
g91
sg59
g60
sg61
g60
sbsg31
g2111
sg32
g62
sbsg163
g0
(g7
g2
Ntp2126
Rp2127
(dp2128
g11
(lp2129
g40
ag41
asg14
I00
sg15
I00
sg40
g0
(g42
g2
Ntp2130
Rp2131
(dp2132
g14
I00
sg29
I01
sg46
g1042
sg15
I01
sbsg41
g0
(g42
g2
Ntp2133
Rp2134
(dp2135
g14
I00
sg29
I01
sg46
g104
sg15
I00
sbsg17
g52
sg16
I137
sg31
g163
sg32
g105
sbsS'ak4PFCHSL2L3'
p2136
g0
(g7
g2
Ntp2137
Rp2138
(dp2139
g11
(lp2140
g13
asg14
I00
sg15
I00
sg16
I52
sg17
g18
sg13
g0
(g19
g20
(lp2141
g600
ag1394
atp2142
Rp2143
(dp2144
g14
I00
sg29
I01
sg15
I00
sg30
I1
sbsg31
g2136
sg32
g33
sbsg215
g217
sg227
g229
sS'kt6PFL2L3'
p2145
g0
(g7
g2
Ntp2146
Rp2147
(dp2148
g11
(lp2149
g13
asg14
I00
sg15
I00
sg16
I52
sg17
g18
sg13
g0
(g19
g20
(lp2150
g113
ag114
atp2151
Rp2152
(dp2153
g14
I00
sg29
I01
sg15
I00
sg30
I1
sbsg31
g2145
sg32
g33
sbsS'ak2PFCHSL2L3'
p2154
g0
(g7
g2
Ntp2155
Rp2156
(dp2157
g11
(lp2158
g13
asg14
I00
sg15
I00
sg16
I52
sg17
g18
sg13
g0
(g19
g20
(lp2159
g1197
ag1800
atp2160
Rp2161
(dp2162
g14
I00
sg29
I01
sg15
I00
sg30
I1
sbsg31
g2154
sg32
g33
sbsS'ic5PFL1FastL2L3L6'
p2163
g0
(g7
g2
Ntp2164
Rp2165
(dp2166
g11
(lp2167
g13
asg14
I00
sg15
I00
sg16
I775
sg17
g52
sg13
g0
(g19
g20
(lp2168
g173
ag262
ag263
ag1135
atp2169
Rp2170
(dp2171
g14
I00
sg29
I01
sg15
I00
sg30
I1
sbsg31
g2163
sg32
g33
sbsS'kt6PFL1FastL2L3Residual'
p2172
g0
(g7
g2
Ntp2173
Rp2174
(dp2175
g11
(lp2176
g13
asg14
I00
sg15
I00
sg16
I52
sg17
g18
sg13
g0
(g19
g20
(lp2177
S'kt6PFL1Fastjet'
p2178
ag113
ag114
ag115
atp2179
Rp2180
(dp2181
g14
I00
sg29
I01
sg15
I00
sg30
I1
sbsg31
g2172
sg32
g33
sbsS'kt6CaloL1FastL2L3'
p2182
g0
(g7
g2
Ntp2183
Rp2184
(dp2185
g11
(lp2186
g13
asg14
I00
sg15
I00
sg16
I603
sg17
g52
sg13
g0
(g19
g20
(lp2187
g310
ag742
ag268
atp2188
Rp2189
(dp2190
g14
I00
sg29
I01
sg15
I00
sg30
I1
sbsg31
g2182
sg32
g33
sbsg1058
g0
(g7
g2
Ntp2191
Rp2192
(dp2193
g11
(lp2194
g40
ag41
asg14
I00
sg15
I00
sg40
g0
(g42
g2
Ntp2195
Rp2196
(dp2197
g14
I00
sg29
I01
sg46
g1042
sg15
I01
sbsg41
g0
(g42
g2
Ntp2198
Rp2199
(dp2200
g14
I00
sg29
I01
sg46
g303
sg15
I00
sbsg17
g52
sg16
I165
sg31
g1058
sg32
g105
sbsg268
g270
sS'kt6PFL1FastL2L3'
p2201
g0
(g7
g2
Ntp2202
Rp2203
(dp2204
g11
(lp2205
g13
asg14
I00
sg15
I00
sg16
I614
sg17
g52
sg13
g0
(g19
g20
(lp2206
g173
ag113
ag114
atp2207
Rp2208
(dp2209
g14
I00
sg29
I01
sg15
I00
sg30
I1
sbsg31
g2201
sg32
g33
sbsg281
g283
sg113
g0
(g7
g2
Ntp2210
Rp2211
(dp2212
g11
(lp2213
g40
ag41
asg14
I00
sg15
I00
sg40
g0
(g42
g2
Ntp2214
Rp2215
(dp2216
g14
I00
sg29
I01
sg46
g1108
sg15
I01
sbsg41
g0
(g42
g2
Ntp2217
Rp2218
(dp2219
g14
I00
sg29
I01
sg46
g364
sg15
I00
sbsg17
g52
sg16
I110
sg31
g113
sg32
g105
sbsg304
g306
sS'kt6CaloL1FastL2L3Residual'
p2220
g0
(g7
g2
Ntp2221
Rp2222
(dp2223
g11
(lp2224
g13
asg14
I00
sg15
I00
sg16
I52
sg17
g18
sg13
g0
(g19
g20
(lp2225
S'kt6CaloL1Fastjet'
p2226
ag742
ag268
ag827
atp2227
Rp2228
(dp2229
g14
I00
sg29
I01
sg15
I00
sg30
I1
sbsg31
g2220
sg32
g33
sbsg1866
g0
(g7
g2
Ntp2230
Rp2231
(dp2232
g11
(lp2233
g137
ag138
ag40
ag41
asg14
I00
sg15
I00
sg40
g0
(g42
g2
Ntp2234
Rp2235
(dp2236
g14
I00
sg29
I01
sg46
g608
sg15
I01
sbsg137
g0
(g143
g2
Ntp2237
Rp2238
(dp2239
g14
I00
sg29
I01
sg46
I4
sg15
I00
sbsg17
g612
sg41
g0
(g42
g2
Ntp2240
Rp2241
(dp2242
g14
I00
sg29
I01
sg46
g150
sg15
I00
sbsg138
g0
(g42
g2
Ntp2243
Rp2244
(dp2245
g14
I00
sg29
I01
sg46
g154
sg15
I00
sbsg16
I31
sg31
g1866
sg32
g155
sbsg72
g293
sS'siPixelQualityESProducer'
p2246
g0
(g7
g2
Ntp2247
Rp2248
(dp2249
g11
(lp2250
g1462
asg14
I00
sg15
I01
sg16
I52
sg17
g18
sg1462
g0
(g1475
g20
(lp2251
g0
(g424
g2
Ntp2252
Rp2253
(dp2254
g14
I00
sg29
I01
sg15
I00
sg685
g0
(g42
g2
Ntp2255
Rp2256
(dp2257
g14
I00
sg29
I01
sg46
S'SiPixelQualityFromDbRcd'
p2258
sg15
I00
sbsg1484
g0
(g42
g2
Ntp2259
Rp2260
(dp2261
g14
I00
sg29
I01
sg46
g60
sg15
I00
sbsg11
(lp2262
g685
ag1484
asbag0
(g424
g2
Ntp2263
Rp2264
(dp2265
g14
I00
sg29
I01
sg15
I00
sg685
g0
(g42
g2
Ntp2266
Rp2267
(dp2268
g14
I00
sg29
I01
sg46
S'SiPixelDetVOffRcd'
p2269
sg15
I00
sbsg1484
g0
(g42
g2
Ntp2270
Rp2271
(dp2272
g14
I00
sg29
I01
sg46
g60
sg15
I00
sbsg11
(lp2273
g685
ag1484
asbatp2274
Rp2275
(dp2276
g14
I00
sg29
I01
sg15
I00
sg30
I1
sbsg31
g2246
sg32
S'SiPixelQualityESProducer'
p2277
sbsg1986
g0
(g7
g2
Ntp2278
Rp2279
(dp2280
g11
(lp2281
g137
ag138
ag40
ag41
asg14
I00
sg15
I00
sg40
g0
(g42
g2
Ntp2282
Rp2283
(dp2284
g14
I00
sg29
I01
sg46
g1277
sg15
I01
sbsg137
g0
(g143
g2
Ntp2285
Rp2286
(dp2287
g14
I00
sg29
I01
sg46
I4
sg15
I00
sbsg17
g52
sg41
g0
(g42
g2
Ntp2288
Rp2289
(dp2290
g14
I00
sg29
I01
sg46
g150
sg15
I00
sbsg138
g0
(g42
g2
Ntp2291
Rp2292
(dp2293
g14
I00
sg29
I01
sg46
g154
sg15
I00
sbsg16
I12
sg31
g1986
sg32
g155
sbsg25
g0
(g7
g2
Ntp2294
Rp2295
(dp2296
g11
(lp2297
g40
ag41
asg14
I00
sg15
I00
sg40
g0
(g42
g2
Ntp2298
Rp2299
(dp2300
g14
I00
sg29
I01
sg46
g1120
sg15
I01
sbsg41
g0
(g42
g2
Ntp2301
Rp2302
(dp2303
g14
I00
sg29
I01
sg46
g303
sg15
I00
sbsg17
g612
sg16
I100
sg31
g25
sg32
g105
sbsS'ak2PFL1L2L3Residual'
p2304
g0
(g7
g2
Ntp2305
Rp2306
(dp2307
g11
(lp2308
g13
asg14
I00
sg15
I00
sg16
I52
sg17
g18
sg13
g0
(g19
g20
(lp2309
S'ak2PFL1Offset'
p2310
aS'ak2PFL2Relative'
p2311
ag92
aS'ak2PFResidual'
p2312
atp2313
Rp2314
(dp2315
g14
I00
sg29
I01
sg15
I00
sg30
I1
sbsg31
g2304
sg32
g33
sbsg1216
g0
(g7
g2
Ntp2316
Rp2317
(dp2318
g11
(lp2319
g40
ag41
asg14
I00
sg15
I00
sg40
g0
(g42
g2
Ntp2320
Rp2321
(dp2322
g14
I00
sg29
I01
sg46
g1420
sg15
I01
sbsg41
g0
(g42
g2
Ntp2323
Rp2324
(dp2325
g14
I00
sg29
I01
sg46
g104
sg15
I00
sbsg17
g612
sg16
I87
sg31
g1216
sg32
g105
sbsg1011
g1013
sS'ak4PFL2L3L6'
p2326
g0
(g7
g2
Ntp2327
Rp2328
(dp2329
g11
(lp2330
g13
asg14
I00
sg15
I00
sg16
I246
sg17
g612
sg13
g0
(g19
g20
(lp2331
g1215
ag1216
ag1996
atp2332
Rp2333
(dp2334
g14
I00
sg29
I01
sg15
I00
sg30
I1
sbsg31
g2326
sg32
g33
sbsg1377
g1379
sS'kt4PFL1FastL2L3L6'
p2335
g0
(g7
g2
Ntp2336
Rp2337
(dp2338
g11
(lp2339
g13
asg14
I00
sg15
I00
sg16
I771
sg17
g52
sg13
g0
(g19
g20
(lp2340
g173
ag162
ag163
ag613
atp2341
Rp2342
(dp2343
g14
I00
sg29
I01
sg15
I00
sg30
I1
sbsg31
g2335
sg32
g33
sbsg821
g823
sS'ak2PFL1Fastjet'
p2344
g0
(g7
g2
Ntp2345
Rp2346
(dp2347
g11
(lp2348
g39
ag40
ag41
asg14
I00
sg15
I00
sg40
g0
(g42
g2
Ntp2349
Rp2350
(dp2351
g14
I00
sg29
I01
sg46
g100
sg15
I01
sbsg41
g0
(g42
g2
Ntp2352
Rp2353
(dp2354
g14
I00
sg29
I01
sg46
g51
sg15
I00
sbsg17
g52
sg16
I64
sg39
g0
(g53
g2
Ntp2355
Rp2356
(dp2357
g14
I00
sg29
I01
sg15
I00
sg57
g91
sg59
g60
sg61
g60
sbsg31
g2344
sg32
g62
sbsg1394
g0
(g7
g2
Ntp2358
Rp2359
(dp2360
g11
(lp2361
g40
ag41
asg14
I00
sg15
I00
sg40
g0
(g42
g2
Ntp2362
Rp2363
(dp2364
g14
I00
sg29
I01
sg46
g608
sg15
I01
sbsg41
g0
(g42
g2
Ntp2365
Rp2366
(dp2367
g14
I00
sg29
I01
sg46
g104
sg15
I00
sbsg17
g612
sg16
I88
sg31
g1394
sg32
g105
sbsS'ic5PFL1FastL2L3Residual'
p2368
g0
(g7
g2
Ntp2369
Rp2370
(dp2371
g11
(lp2372
g13
asg14
I00
sg15
I00
sg16
I52
sg17
g18
sg13
g0
(g19
g20
(lp2373
S'ic5PFL1Fastjet'
p2374
ag262
ag263
ag264
atp2375
Rp2376
(dp2377
g14
I00
sg29
I01
sg15
I00
sg30
I1
sbsg31
g2368
sg32
g33
sbsS'ak4PFCHSL1L2L3Residual'
p2378
g0
(g7
g2
Ntp2379
Rp2380
(dp2381
g11
(lp2382
g13
asg14
I00
sg15
I00
sg16
I52
sg17
g18
sg13
g0
(g19
g20
(lp2383
g1866
ag600
ag1394
ag1395
atp2384
Rp2385
(dp2386
g14
I00
sg29
I01
sg15
I00
sg30
I1
sbsg31
g2378
sg32
g33
sbsg587
g589
sg851
g0
(g7
g2
Ntp2387
Rp2388
(dp2389
g11
(lp2390
g40
ag41
asg14
I00
sg15
I00
sg40
g0
(g42
g2
Ntp2391
Rp2392
(dp2393
g14
I00
sg29
I01
sg46
g2047
sg15
I01
sbsg41
g0
(g42
g2
Ntp2394
Rp2395
(dp2396
g14
I00
sg29
I01
sg46
g303
sg15
I00
sbsg17
g52
sg16
I145
sg31
g851
sg32
g105
sbsg600
g602
sS'ak8PFCHSL1FastjetL2L3Residual'
p2397
g0
(g7
g2
Ntp2398
Rp2399
(dp2400
g11
(lp2401
g13
asg14
I00
sg15
I00
sg16
I52
sg17
g18
sg13
g0
(g19
g20
(lp2402
S'ak8PFCHSL1Fastjet'
p2403
ag1174
ag215
ag1175
atp2404
Rp2405
(dp2406
g14
I00
sg29
I01
sg15
I00
sg30
I1
sbsg31
g2397
sg32
g33
sbsg2312
g0
(g7
g2
Ntp2407
Rp2408
(dp2409
g11
(lp2410
g40
ag41
asg14
I00
sg15
I00
sg40
g0
(g42
g2
Ntp2411
Rp2412
(dp2413
g14
I00
sg29
I01
sg46
g100
sg15
I01
sbsg41
g0
(g42
g2
Ntp2414
Rp2415
(dp2416
g14
I00
sg29
I01
sg46
g303
sg15
I00
sbsg17
g52
sg16
I149
sg31
g2312
sg32
g105
sbsS'ic5CaloL1L2L3Residual'
p2417
g0
(g7
g2
Ntp2418
Rp2419
(dp2420
g11
(lp2421
g13
asg14
I00
sg15
I00
sg16
I52
sg17
g18
sg13
g0
(g19
g20
(lp2422
g1097
ag849
ag850
ag851
atp2423
Rp2424
(dp2425
g14
I00
sg29
I01
sg15
I00
sg30
I1
sbsg31
g2417
sg32
g33
sbsg1229
g1271
sS'ak4CaloL1FastL2L3Residual'
p2426
g0
(g7
g2
Ntp2427
Rp2428
(dp2429
g11
(lp2430
g13
asg14
I00
sg15
I00
sg16
I52
sg17
g18
sg13
g0
(g19
g20
(lp2431
g310
ag209
ag210
ag211
atp2432
Rp2433
(dp2434
g14
I00
sg29
I01
sg15
I00
sg30
I1
sbsg31
g2426
sg32
g33
sbsg808
g0
(g7
g2
Ntp2435
Rp2436
(dp2437
g11
(lp2438
g40
ag41
asg14
I00
sg15
I00
sg40
g0
(g42
g2
Ntp2439
Rp2440
(dp2441
g14
I00
sg29
I01
sg46
g1263
sg15
I01
sbsg41
g0
(g42
g2
Ntp2442
Rp2443
(dp2444
g14
I00
sg29
I01
sg46
g303
sg15
I00
sbsg17
g52
sg16
I152
sg31
g808
sg32
g105
sbsg646
g648
sg1885
g0
(g7
g2
Ntp2445
Rp2446
(dp2447
g11
(lp2448
g137
ag138
ag40
ag41
asg14
I00
sg15
I00
sg40
g0
(g42
g2
Ntp2449
Rp2450
(dp2451
g14
I00
sg29
I01
sg46
g2119
sg15
I01
sbsg137
g0
(g143
g2
Ntp2452
Rp2453
(dp2454
g14
I00
sg29
I01
sg46
I4
sg15
I00
sbsg17
g52
sg41
g0
(g42
g2
Ntp2455
Rp2456
(dp2457
g14
I00
sg29
I01
sg46
g150
sg15
I00
sbsg138
g0
(g42
g2
Ntp2458
Rp2459
(dp2460
g14
I00
sg29
I01
sg46
g154
sg15
I00
sbsg16
I22
sg31
g1885
sg32
g155
sbsg659
g661
sS'kt4PFL1FastL2L3Residual'
p2461
g0
(g7
g2
Ntp2462
Rp2463
(dp2464
g11
(lp2465
g13
asg14
I00
sg15
I00
sg16
I52
sg17
g18
sg13
g0
(g19
g20
(lp2466
g1399
ag162
ag163
ag1058
atp2467
Rp2468
(dp2469
g14
I00
sg29
I01
sg15
I00
sg30
I1
sbsg31
g2461
sg32
g33
sbsS'ak3PFL2L3Residual'
p2470
g0
(g7
g2
Ntp2471
Rp2472
(dp2473
g11
(lp2474
g13
asg14
I00
sg15
I00
sg16
I52
sg17
g18
sg13
g0
(g19
g20
(lp2475
g1383
ag1384
ag1886
atp2476
Rp2477
(dp2478
g14
I00
sg29
I01
sg15
I00
sg30
I1
sbsg31
g2470
sg32
g33
sbsg1129
g1131
sS'ak3PFCHSL2L3'
p2479
g0
(g7
g2
Ntp2480
Rp2481
(dp2482
g11
(lp2483
g13
asg14
I00
sg15
I00
sg16
I52
sg17
g18
sg13
g0
(g19
g20
(lp2484
g806
ag807
atp2485
Rp2486
(dp2487
g14
I00
sg29
I01
sg15
I00
sg30
I1
sbsg31
g2479
sg32
g33
sbsg1082
g1084
sg261
g0
(g7
g2
Ntp2488
Rp2489
(dp2490
g11
(lp2491
g137
ag138
ag40
ag41
asg14
I00
sg15
I00
sg40
g0
(g42
g2
Ntp2492
Rp2493
(dp2494
g14
I00
sg29
I01
sg46
g786
sg15
I01
sbsg137
g0
(g143
g2
Ntp2495
Rp2496
(dp2497
g14
I00
sg29
I01
sg46
I4
sg15
I00
sbsg17
g52
sg41
g0
(g42
g2
Ntp2498
Rp2499
(dp2500
g14
I00
sg29
I01
sg46
g150
sg15
I00
sbsg138
g0
(g42
g2
Ntp2501
Rp2502
(dp2503
g14
I00
sg29
I01
sg46
g154
sg15
I00
sbsg16
I38
sg31
g261
sg32
g155
sbsS'ak9PFCHSL1FastjetL2L3Residual'
p2504
g0
(g7
g2
Ntp2505
Rp2506
(dp2507
g11
(lp2508
g13
asg14
I00
sg15
I00
sg16
I52
sg17
g18
sg13
g0
(g19
g20
(lp2509
S'ak9PFCHSL1Fastjet'
p2510
ag906
ag1730
aS'ak9PFCHSResidual'
p2511
atp2512
Rp2513
(dp2514
g14
I00
sg29
I01
sg15
I00
sg30
I1
sbsg31
g2504
sg32
g33
sbsg185
g0
(g7
g2
Ntp2515
Rp2516
(dp2517
g11
(lp2518
g40
ag41
asg14
I00
sg15
I00
sg40
g0
(g42
g2
Ntp2519
Rp2520
(dp2521
g14
I00
sg29
I01
sg46
g1831
sg15
I01
sbsg41
g0
(g42
g2
Ntp2522
Rp2523
(dp2524
g14
I00
sg29
I01
sg46
g104
sg15
I00
sbsg17
g52
sg16
I126
sg31
g185
sg32
g105
sbsS'ak6PFL3Absolute'
p2525
g0
(g7
g2
Ntp2526
Rp2527
(dp2528
g11
(lp2529
g40
ag41
asg14
I00
sg15
I00
sg40
g0
(g42
g2
Ntp2530
Rp2531
(dp2532
g14
I00
sg29
I01
sg46
g1744
sg15
I01
sbsg41
g0
(g42
g2
Ntp2533
Rp2534
(dp2535
g14
I00
sg29
I01
sg46
g104
sg15
I00
sbsg17
g52
sg16
I127
sg31
g2525
sg32
g105
sbsS'ak6PFL1Fastjet'
p2536
g0
(g7
g2
Ntp2537
Rp2538
(dp2539
g11
(lp2540
g39
ag40
ag41
asg14
I00
sg15
I00
sg40
g0
(g42
g2
Ntp2541
Rp2542
(dp2543
g14
I00
sg29
I01
sg46
g1744
sg15
I01
sbsg41
g0
(g42
g2
Ntp2544
Rp2545
(dp2546
g14
I00
sg29
I01
sg46
g51
sg15
I00
sbsg17
g52
sg16
I70
sg39
g0
(g53
g2
Ntp2547
Rp2548
(dp2549
g14
I00
sg29
I01
sg15
I00
sg57
g91
sg59
g60
sg61
g60
sbsg31
g2536
sg32
g62
sbsS'ak6PFCHSL1L2L3Residual'
p2550
g0
(g7
g2
Ntp2551
Rp2552
(dp2553
g11
(lp2554
g13
asg14
I00
sg15
I00
sg16
I52
sg17
g18
sg13
g0
(g19
g20
(lp2555
S'ak6PFCHSL1Offset'
p2556
ag287
ag288
aS'ak6PFCHSResidual'
p2557
atp2558
Rp2559
(dp2560
g14
I00
sg29
I01
sg15
I00
sg30
I1
sbsg31
g2550
sg32
g33
sbsS'ak10PFL1FastjetL2L3Residual'
p2561
g0
(g7
g2
Ntp2562
Rp2563
(dp2564
g11
(lp2565
g13
asg14
I00
sg15
I00
sg16
I52
sg17
g18
sg13
g0
(g19
g20
(lp2566
g764
ag594
ag595
ag596
atp2567
Rp2568
(dp2569
g14
I00
sg29
I01
sg15
I00
sg30
I1
sbsg31
g2561
sg32
g33
sbsg2107
g0
(g7
g2
Ntp2570
Rp2571
(dp2572
g11
(lp2573
g232
ag233
ag234
ag40
ag41
asg14
I00
sg15
I00
sg40
g0
(g42
g2
Ntp2574
Rp2575
(dp2576
g14
I00
sg29
I01
sg46
g60
sg15
I00
sbsg232
g0
(g53
g2
Ntp2577
Rp2578
(dp2579
g14
I00
sg29
I01
sg15
I00
sg57
S'kt4CaloJetsSoftElectronTagInfos'
p2580
sg61
g60
sg59
g60
sbsg17
g52
sg41
g0
(g42
g2
Ntp2581
Rp2582
(dp2583
g14
I00
sg29
I01
sg46
g245
sg15
I00
sbsg233
g0
(g53
g2
Ntp2584
Rp2585
(dp2586
g14
I00
sg29
I01
sg15
I00
sg57
S'kt4CaloJetsSoftMuonTagInfos'
p2587
sg61
g60
sg59
g60
sbsg16
I177
sg234
g0
(g250
g2
Ntp2588
Rp2589
(dp2590
g14
I00
sg29
I01
sg46
I01
sg15
I00
sbsg31
g2107
sg32
g254
sbsg1430
g0
(g7
g2
Ntp2591
Rp2592
(dp2593
g11
(lp2594
g39
ag40
ag41
asg14
I00
sg15
I00
sg40
g0
(g42
g2
Ntp2595
Rp2596
(dp2597
g14
I00
sg29
I01
sg46
g299
sg15
I01
sbsg41
g0
(g42
g2
Ntp2598
Rp2599
(dp2600
g14
I00
sg29
I01
sg46
g51
sg15
I00
sbsg17
g52
sg16
I79
sg39
g0
(g53
g2
Ntp2601
Rp2602
(dp2603
g14
I00
sg29
I01
sg15
I00
sg57
g91
sg59
g60
sg61
g60
sbsg31
g1430
sg32
g62
sbsS'ic5PFL1L2L3'
p2604
g0
(g7
g2
Ntp2605
Rp2606
(dp2607
g11
(lp2608
g13
asg14
I00
sg15
I00
sg16
I52
sg17
g18
sg13
g0
(g19
g20
(lp2609
g261
ag262
ag263
atp2610
Rp2611
(dp2612
g14
I00
sg29
I01
sg15
I00
sg30
I1
sbsg31
g2604
sg32
g33
sbsS'ak4PFL1L2L3'
p2613
g0
(g7
g2
Ntp2614
Rp2615
(dp2616
g11
(lp2617
g13
asg14
I00
sg15
I00
sg16
I52
sg17
g18
sg13
g0
(g19
g20
(lp2618
S'ak4PFL1Offset'
p2619
ag1215
ag1216
atp2620
Rp2621
(dp2622
g14
I00
sg29
I01
sg15
I00
sg30
I1
sbsg31
g2613
sg32
g33
sbsg880
g0
(g7
g2
Ntp2623
Rp2624
(dp2625
g11
(lp2626
g40
ag41
asg14
I00
sg15
I00
sg40
g0
(g42
g2
Ntp2627
Rp2628
(dp2629
g14
I00
sg29
I01
sg46
g863
sg15
I01
sbsg41
g0
(g42
g2
Ntp2630
Rp2631
(dp2632
g14
I00
sg29
I01
sg46
g104
sg15
I00
sbsg17
g52
sg16
I129
sg31
g880
sg32
g105
sbsS'kt4PFL1L2L3Residual'
p2633
g0
(g7
g2
Ntp2634
Rp2635
(dp2636
g11
(lp2637
g13
asg14
I00
sg15
I00
sg16
I52
sg17
g18
sg13
g0
(g19
g20
(lp2638
g1034
ag162
ag163
ag1058
atp2639
Rp2640
(dp2641
g14
I00
sg29
I01
sg15
I00
sg30
I1
sbsg31
g2633
sg32
g33
sbsg938
g0
(g7
g2
Ntp2642
Rp2643
(dp2644
g11
(lp2645
g40
ag41
asg14
I00
sg15
I00
sg40
g0
(g42
g2
Ntp2646
Rp2647
(dp2648
g14
I00
sg29
I01
sg46
g1187
sg15
I01
sbsg41
g0
(g42
g2
Ntp2649
Rp2650
(dp2651
g14
I00
sg29
I01
sg46
g104
sg15
I00
sbsg17
g52
sg16
I119
sg31
g938
sg32
g105
sbsg725
g727
sS'ak1PFCHSL1L2L3Residual'
p2652
g0
(g7
g2
Ntp2653
Rp2654
(dp2655
g11
(lp2656
g13
asg14
I00
sg15
I00
sg16
I52
sg17
g18
sg13
g0
(g19
g20
(lp2657
S'ak1PFCHSL1Offset'
p2658
aS'ak1PFCHSL2Relative'
p2659
ag831
ag2000
atp2660
Rp2661
(dp2662
g14
I00
sg29
I01
sg15
I00
sg30
I1
sbsg31
g2652
sg32
g33
sbsg264
g0
(g7
g2
Ntp2663
Rp2664
(dp2665
g11
(lp2666
g40
ag41
asg14
I00
sg15
I00
sg40
g0
(g42
g2
Ntp2667
Rp2668
(dp2669
g14
I00
sg29
I01
sg46
g786
sg15
I01
sbsg41
g0
(g42
g2
Ntp2670
Rp2671
(dp2672
g14
I00
sg29
I01
sg46
g303
sg15
I00
sbsg17
g52
sg16
I167
sg31
g264
sg32
g105
sbsg1388
g1390
sS'ak6PFL1FastjetL2L3Residual'
p2673
g0
(g7
g2
Ntp2674
Rp2675
(dp2676
g11
(lp2677
g13
asg14
I00
sg15
I00
sg16
I52
sg17
g18
sg13
g0
(g19
g20
(lp2678
g2536
aS'ak6PFL2Relative'
p2679
ag2525
ag1736
atp2680
Rp2681
(dp2682
g14
I00
sg29
I01
sg15
I00
sg30
I1
sbsg31
g2673
sg32
g33
sbsg747
g749
sg764
g766
sg1217
g0
(g7
g2
Ntp2683
Rp2684
(dp2685
g11
(lp2686
g40
ag41
asg14
I00
sg15
I00
sg40
g0
(g42
g2
Ntp2687
Rp2688
(dp2689
g14
I00
sg29
I01
sg46
g1420
sg15
I01
sbsg41
g0
(g42
g2
Ntp2690
Rp2691
(dp2692
g14
I00
sg29
I01
sg46
g303
sg15
I00
sbsg17
g612
sg16
I98
sg31
g1217
sg32
g105
sbsg1017
g0
(g7
g2
Ntp2693
Rp2694
(dp2695
g11
(lp2696
g137
ag138
ag40
ag41
asg14
I00
sg15
I00
sg40
g0
(g42
g2
Ntp2697
Rp2698
(dp2699
g14
I00
sg29
I01
sg46
g47
sg15
I01
sbsg137
g0
(g143
g2
Ntp2700
Rp2701
(dp2702
g14
I00
sg29
I01
sg46
I4
sg15
I00
sbsg17
g52
sg41
g0
(g42
g2
Ntp2703
Rp2704
(dp2705
g14
I00
sg29
I01
sg46
g150
sg15
I00
sbsg138
g0
(g42
g2
Ntp2706
Rp2707
(dp2708
g14
I00
sg29
I01
sg46
g154
sg15
I00
sbsg16
I11
sg31
g1017
sg32
g155
sbsS'ak7PFCHSL1L2L3Residual'
p2709
g0
(g7
g2
Ntp2710
Rp2711
(dp2712
g11
(lp2713
g13
asg14
I00
sg15
I00
sg16
I52
sg17
g18
sg13
g0
(g19
g20
(lp2714
g747
ag665
ag666
aS'ak7PFCHSResidual'
p2715
atp2716
Rp2717
(dp2718
g14
I00
sg29
I01
sg15
I00
sg30
I1
sbsg31
g2709
sg32
g33
sbsg2557
g0
(g7
g2
Ntp2719
Rp2720
(dp2721
g11
(lp2722
g40
ag41
asg14
I00
sg15
I00
sg40
g0
(g42
g2
Ntp2723
Rp2724
(dp2725
g14
I00
sg29
I01
sg46
S'AK6PFchs'
p2726
sg15
I01
sbsg41
g0
(g42
g2
Ntp2727
Rp2728
(dp2729
g14
I00
sg29
I01
sg46
g303
sg15
I00
sbsg17
g52
sg16
I156
sg31
g2557
sg32
g105
sbsS'ak9PFL1Offset'
p2730
g0
(g7
g2
Ntp2731
Rp2732
(dp2733
g11
(lp2734
g137
ag138
ag40
ag41
asg14
I00
sg15
I00
sg40
g0
(g42
g2
Ntp2735
Rp2736
(dp2737
g14
I00
sg29
I01
sg46
S'AK9PF'
p2738
sg15
I01
sbsg137
g0
(g143
g2
Ntp2739
Rp2740
(dp2741
g14
I00
sg29
I01
sg46
I4
sg15
I00
sbsg17
g52
sg41
g0
(g42
g2
Ntp2742
Rp2743
(dp2744
g14
I00
sg29
I01
sg46
g150
sg15
I00
sbsg138
g0
(g42
g2
Ntp2745
Rp2746
(dp2747
g14
I00
sg29
I01
sg46
g154
sg15
I00
sbsg16
I32
sg31
g2730
sg32
g155
sbsg949
g0
(g7
g2
Ntp2748
Rp2749
(dp2750
g11
(lp2751
g40
ag41
asg14
I00
sg15
I00
sg40
g0
(g42
g2
Ntp2752
Rp2753
(dp2754
g14
I00
sg29
I01
sg46
g863
sg15
I01
sbsg41
g0
(g42
g2
Ntp2755
Rp2756
(dp2757
g14
I00
sg29
I01
sg46
g303
sg15
I00
sbsg17
g52
sg16
I157
sg31
g949
sg32
g105
sbsS'kt6PFL2L3L6'
p2758
g0
(g7
g2
Ntp2759
Rp2760
(dp2761
g11
(lp2762
g13
asg14
I00
sg15
I00
sg16
I753
sg17
g52
sg13
g0
(g19
g20
(lp2763
g113
ag114
ag174
atp2764
Rp2765
(dp2766
g14
I00
sg29
I01
sg15
I00
sg30
I1
sbsg31
g2758
sg32
g33
sbsg595
g791
sg800
g802
sg812
g814
sS'ak7CaloL2L3Residual'
p2767
g0
(g7
g2
Ntp2768
Rp2769
(dp2770
g11
(lp2771
g13
asg14
I00
sg15
I00
sg16
I52
sg17
g18
sg13
g0
(g19
g20
(lp2772
g1018
ag1019
ag635
atp2773
Rp2774
(dp2775
g14
I00
sg29
I01
sg15
I00
sg30
I1
sbsg31
g2767
sg32
g33
sbsg287
g0
(g7
g2
Ntp2776
Rp2777
(dp2778
g11
(lp2779
g40
ag41
asg14
I00
sg15
I00
sg40
g0
(g42
g2
Ntp2780
Rp2781
(dp2782
g14
I00
sg29
I01
sg46
g2726
sg15
I01
sbsg41
g0
(g42
g2
Ntp2783
Rp2784
(dp2785
g14
I00
sg29
I01
sg46
g364
sg15
I00
sbsg17
g52
sg16
I100
sg31
g287
sg32
g105
sbsg1384
g0
(g7
g2
Ntp2786
Rp2787
(dp2788
g11
(lp2789
g40
ag41
asg14
I00
sg15
I00
sg40
g0
(g42
g2
Ntp2790
Rp2791
(dp2792
g14
I00
sg29
I01
sg46
g2119
sg15
I01
sbsg41
g0
(g42
g2
Ntp2793
Rp2794
(dp2795
g14
I00
sg29
I01
sg46
g104
sg15
I00
sbsg17
g52
sg16
I123
sg31
g1384
sg32
g105
sbsg831
g833
sS'ak4PFL1L2L3Residual'
p2796
g0
(g7
g2
Ntp2797
Rp2798
(dp2799
g11
(lp2800
g13
asg14
I00
sg15
I00
sg16
I52
sg17
g18
sg13
g0
(g19
g20
(lp2801
g2619
ag1215
ag1216
ag1217
atp2802
Rp2803
(dp2804
g14
I00
sg29
I01
sg15
I00
sg30
I1
sbsg31
g2796
sg32
g33
sbsg843
g845
sS'ak7JPTL1L2L3'
p2805
g0
(g7
g2
Ntp2806
Rp2807
(dp2808
g11
(lp2809
g13
asg14
I00
sg15
I00
sg16
I52
sg17
g18
sg13
g0
(g19
g20
(lp2810
S'ak7L1JPTOffset'
p2811
ag197
ag198
atp2812
Rp2813
(dp2814
g14
I00
sg29
I01
sg15
I00
sg30
I1
sbsg31
g2805
sg32
g33
sbsg670
g672
sg1383
g0
(g7
g2
Ntp2815
Rp2816
(dp2817
g11
(lp2818
g40
ag41
asg14
I00
sg15
I00
sg40
g0
(g42
g2
Ntp2819
Rp2820
(dp2821
g14
I00
sg29
I01
sg46
g2119
sg15
I01
sbsg41
g0
(g42
g2
Ntp2822
Rp2823
(dp2824
g14
I00
sg29
I01
sg46
g364
sg15
I00
sbsg17
g52
sg16
I95
sg31
g1383
sg32
g105
sbsS'ic5PFL1FastL2L3'
p2825
g0
(g7
g2
Ntp2826
Rp2827
(dp2828
g11
(lp2829
g13
asg14
I00
sg15
I00
sg16
I616
sg17
g52
sg13
g0
(g19
g20
(lp2830
g173
ag262
ag263
atp2831
Rp2832
(dp2833
g14
I00
sg29
I01
sg15
I00
sg30
I1
sbsg31
g2825
sg32
g33
sbsg2715
g0
(g7
g2
Ntp2834
Rp2835
(dp2836
g11
(lp2837
g40
ag41
asg14
I00
sg15
I00
sg40
g0
(g42
g2
Ntp2838
Rp2839
(dp2840
g14
I00
sg29
I01
sg46
g84
sg15
I01
sbsg41
g0
(g42
g2
Ntp2841
Rp2842
(dp2843
g14
I00
sg29
I01
sg46
g303
sg15
I00
sbsg17
g52
sg16
I158
sg31
g2715
sg32
g105
sbsg741
g0
(g7
g2
Ntp2844
Rp2845
(dp2846
g11
(lp2847
g137
ag138
ag40
ag41
asg14
I00
sg15
I00
sg40
g0
(g42
g2
Ntp2848
Rp2849
(dp2850
g14
I00
sg29
I01
sg46
g276
sg15
I01
sbsg137
g0
(g143
g2
Ntp2851
Rp2852
(dp2853
g14
I00
sg29
I01
sg46
I4
sg15
I00
sbsg17
g52
sg41
g0
(g42
g2
Ntp2854
Rp2855
(dp2856
g14
I00
sg29
I01
sg46
g150
sg15
I00
sbsg138
g0
(g42
g2
Ntp2857
Rp2858
(dp2859
g14
I00
sg29
I01
sg46
g154
sg15
I00
sbsg16
I13
sg31
g741
sg32
g155
sbsg855
g857
sS'ak8PFL2L3Residual'
p2860
g0
(g7
g2
Ntp2861
Rp2862
(dp2863
g11
(lp2864
g13
asg14
I00
sg15
I00
sg16
I52
sg17
g18
sg13
g0
(g19
g20
(lp2865
g126
ag127
ag128
atp2866
Rp2867
(dp2868
g14
I00
sg29
I01
sg15
I00
sg30
I1
sbsg31
g2860
sg32
g33
sbsg2374
g0
(g7
g2
Ntp2869
Rp2870
(dp2871
g11
(lp2872
g39
ag40
ag41
asg14
I00
sg15
I00
sg40
g0
(g42
g2
Ntp2873
Rp2874
(dp2875
g14
I00
sg29
I01
sg46
g786
sg15
I01
sbsg41
g0
(g42
g2
Ntp2876
Rp2877
(dp2878
g14
I00
sg29
I01
sg46
g51
sg15
I00
sbsg17
g52
sg16
I82
sg39
g0
(g53
g2
Ntp2879
Rp2880
(dp2881
g14
I00
sg29
I01
sg15
I00
sg57
g91
sg59
g60
sg61
g60
sbsg31
g2374
sg32
g62
sbsS'ak4CaloL1FastL2L3'
p2882
g0
(g7
g2
Ntp2883
Rp2884
(dp2885
g11
(lp2886
g13
asg14
I00
sg15
I00
sg16
I210
sg17
g612
sg13
g0
(g19
g20
(lp2887
g310
ag209
ag210
atp2888
Rp2889
(dp2890
g14
I00
sg29
I01
sg15
I00
sg30
I1
sbsg31
g2882
sg32
g33
sbsg873
g875
sg2679
g0
(g7
g2
Ntp2891
Rp2892
(dp2893
g11
(lp2894
g40
ag41
asg14
I00
sg15
I00
sg40
g0
(g42
g2
Ntp2895
Rp2896
(dp2897
g14
I00
sg29
I01
sg46
g1744
sg15
I01
sbsg41
g0
(g42
g2
Ntp2898
Rp2899
(dp2900
g14
I00
sg29
I01
sg46
g364
sg15
I00
sbsg17
g52
sg16
I99
sg31
g2679
sg32
g105
sbsg943
g945
sg1227
g0
(g7
g2
Ntp2901
Rp2902
(dp2903
g11
(lp2904
g39
ag40
ag41
asg14
I00
sg15
I00
sg40
g0
(g42
g2
Ntp2905
Rp2906
(dp2907
g14
I00
sg29
I01
sg46
g1277
sg15
I01
sbsg41
g0
(g42
g2
Ntp2908
Rp2909
(dp2910
g14
I00
sg29
I01
sg46
g51
sg15
I00
sbsg17
g52
sg16
I50
sg39
g0
(g53
g2
Ntp2911
Rp2912
(dp2913
g14
I00
sg29
I01
sg15
I00
sg57
g58
sg59
g60
sg61
g60
sbsg31
g1227
sg32
g62
sbsg112
g0
(g7
g2
Ntp2914
Rp2915
(dp2916
g11
(lp2917
g137
ag138
ag40
ag41
asg14
I00
sg15
I00
sg40
g0
(g42
g2
Ntp2918
Rp2919
(dp2920
g14
I00
sg29
I01
sg46
g1108
sg15
I01
sbsg137
g0
(g143
g2
Ntp2921
Rp2922
(dp2923
g14
I00
sg29
I01
sg46
I4
sg15
I00
sbsg17
g52
sg41
g0
(g42
g2
Ntp2924
Rp2925
(dp2926
g14
I00
sg29
I01
sg46
g150
sg15
I00
sbsg138
g0
(g42
g2
Ntp2927
Rp2928
(dp2929
g14
I00
sg29
I01
sg46
g154
sg15
I00
sbsg16
I37
sg31
g112
sg32
g155
sbsS'ak1PFCHSL1FastjetL2L3Residual'
p2930
g0
(g7
g2
Ntp2931
Rp2932
(dp2933
g11
(lp2934
g13
asg14
I00
sg15
I00
sg16
I52
sg17
g18
sg13
g0
(g19
g20
(lp2935
S'ak1PFCHSL1Fastjet'
p2936
ag2659
ag831
ag2000
atp2937
Rp2938
(dp2939
g14
I00
sg29
I01
sg15
I00
sg30
I1
sbsg31
g2930
sg32
g33
sbsg849
g0
(g7
g2
Ntp2940
Rp2941
(dp2942
g11
(lp2943
g40
ag41
asg14
I00
sg15
I00
sg40
g0
(g42
g2
Ntp2944
Rp2945
(dp2946
g14
I00
sg29
I01
sg46
g2047
sg15
I01
sbsg41
g0
(g42
g2
Ntp2947
Rp2948
(dp2949
g14
I00
sg29
I01
sg46
g364
sg15
I00
sbsg17
g52
sg16
I88
sg31
g849
sg32
g105
sbsS'ak7PFL1FastL2L3L6'
p2950
g0
(g7
g2
Ntp2951
Rp2952
(dp2953
g11
(lp2954
g13
asg14
I00
sg15
I00
sg16
I769
sg17
g52
sg13
g0
(g19
g20
(lp2955
g173
ag879
ag880
aS'ak7PFL6SLB'
p2956
atp2957
Rp2958
(dp2959
g14
I00
sg29
I01
sg15
I00
sg30
I1
sbsg31
g2950
sg32
g33
sbsg1373
g0
(g7
g2
Ntp2960
Rp2961
(dp2962
g11
(lp2963
g232
ag233
ag234
ag40
ag41
asg14
I00
sg15
I00
sg40
g0
(g42
g2
Ntp2964
Rp2965
(dp2966
g14
I00
sg29
I01
sg46
g60
sg15
I00
sbsg232
g0
(g53
g2
Ntp2967
Rp2968
(dp2969
g14
I00
sg29
I01
sg15
I00
sg57
S'ak7CaloJetsSoftElectronTagInfos'
p2970
sg61
g60
sg59
g60
sbsg17
g52
sg41
g0
(g42
g2
Ntp2971
Rp2972
(dp2973
g14
I00
sg29
I01
sg46
g245
sg15
I00
sbsg233
g0
(g53
g2
Ntp2974
Rp2975
(dp2976
g14
I00
sg29
I01
sg15
I00
sg57
S'ak7CaloJetsSoftMuonTagInfos'
p2977
sg61
g60
sg59
g60
sbsg16
I173
sg234
g0
(g250
g2
Ntp2978
Rp2979
(dp2980
g14
I00
sg29
I01
sg46
I01
sg15
I00
sbsg31
g1373
sg32
g254
sbsg1886
g0
(g7
g2
Ntp2981
Rp2982
(dp2983
g11
(lp2984
g40
ag41
asg14
I00
sg15
I00
sg40
g0
(g42
g2
Ntp2985
Rp2986
(dp2987
g14
I00
sg29
I01
sg46
g2119
sg15
I01
sbsg41
g0
(g42
g2
Ntp2988
Rp2989
(dp2990
g14
I00
sg29
I01
sg46
g303
sg15
I00
sbsg17
g52
sg16
I151
sg31
g1886
sg32
g105
sbsg1167
g1169
sg1173
g0
(g7
g2
Ntp2991
Rp2992
(dp2993
g11
(lp2994
g137
ag138
ag40
ag41
asg14
I00
sg15
I00
sg40
g0
(g42
g2
Ntp2995
Rp2996
(dp2997
g14
I00
sg29
I01
sg46
g223
sg15
I01
sbsg137
g0
(g143
g2
Ntp2998
Rp2999
(dp3000
g14
I00
sg29
I01
sg46
I4
sg15
I00
sbsg17
g52
sg41
g0
(g42
g2
Ntp3001
Rp3002
(dp3003
g14
I00
sg29
I01
sg46
g150
sg15
I00
sbsg138
g0
(g42
g2
Ntp3004
Rp3005
(dp3006
g14
I00
sg29
I01
sg46
g154
sg15
I00
sbsg16
I31
sg31
g1173
sg32
g155
sbsg1073
g1075
sg174
g886
sg906
g908
sg918
g920
sS'ak9PFCHSL1L2L3Residual'
p3007
g0
(g7
g2
Ntp3008
Rp3009
(dp3010
g11
(lp3011
g13
asg14
I00
sg15
I00
sg16
I52
sg17
g18
sg13
g0
(g19
g20
(lp3012
g1758
ag906
ag1730
ag2511
atp3013
Rp3014
(dp3015
g14
I00
sg29
I01
sg15
I00
sg30
I1
sbsg31
g3007
sg32
g33
sbsg1730
g0
(g7
g2
Ntp3016
Rp3017
(dp3018
g11
(lp3019
g40
ag41
asg14
I00
sg15
I00
sg40
g0
(g42
g2
Ntp3020
Rp3021
(dp3022
g14
I00
sg29
I01
sg46
g914
sg15
I01
sbsg41
g0
(g42
g2
Ntp3023
Rp3024
(dp3025
g14
I00
sg29
I01
sg46
g104
sg15
I00
sbsg17
g52
sg16
I134
sg31
g1730
sg32
g105
sbsS'ak7CaloL1FastL2L3Residual'
p3026
g0
(g7
g2
Ntp3027
Rp3028
(dp3029
g11
(lp3030
g13
asg14
I00
sg15
I00
sg16
I52
sg17
g18
sg13
g0
(g19
g20
(lp3031
g34
ag1018
ag1019
ag635
atp3032
Rp3033
(dp3034
g14
I00
sg29
I01
sg15
I00
sg30
I1
sbsg31
g3026
sg32
g33
sbsS'ak9PFL1FastjetL2L3Residual'
p3035
g0
(g7
g2
Ntp3036
Rp3037
(dp3038
g11
(lp3039
g13
asg14
I00
sg15
I00
sg16
I52
sg17
g18
sg13
g0
(g19
g20
(lp3040
S'ak9PFL1Fastjet'
p3041
ag924
ag925
ag926
atp3042
Rp3043
(dp3044
g14
I00
sg29
I01
sg15
I00
sg30
I1
sbsg31
g3035
sg32
g33
sbsS'ak4JPTL1Offset'
p3045
g0
(g7
g2
Ntp3046
Rp3047
(dp3048
g11
(lp3049
g137
ag138
ag40
ag41
asg14
I00
sg15
I00
sg40
g0
(g42
g2
Ntp3050
Rp3051
(dp3052
g14
I00
sg29
I01
sg46
g1120
sg15
I01
sbsg137
g0
(g143
g2
Ntp3053
Rp3054
(dp3055
g14
I00
sg29
I01
sg46
I4
sg15
I00
sbsg17
g612
sg41
g0
(g42
g2
Ntp3056
Rp3057
(dp3058
g14
I00
sg29
I01
sg46
g150
sg15
I00
sbsg138
g0
(g42
g2
Ntp3059
Rp3060
(dp3061
g14
I00
sg29
I01
sg46
g154
sg15
I00
sbsg16
I32
sg31
g3045
sg32
g155
sbsg167
g169
sg931
g933
sS'ak7PFCHSL2L3Residual'
p3062
g0
(g7
g2
Ntp3063
Rp3064
(dp3065
g11
(lp3066
g13
asg14
I00
sg15
I00
sg16
I52
sg17
g18
sg13
g0
(g19
g20
(lp3067
g665
ag666
ag2715
atp3068
Rp3069
(dp3070
g14
I00
sg29
I01
sg15
I00
sg30
I1
sbsg31
g3062
sg32
g33
sbsg173
g0
(g7
g2
Ntp3071
Rp3072
(dp3073
g11
(lp3074
g39
ag40
ag41
asg14
I00
sg15
I00
sg40
g0
(g42
g2
Ntp3075
Rp3076
(dp3077
g14
I00
sg29
I01
sg46
g1420
sg15
I00
sbsg41
g0
(g42
g2
Ntp3078
Rp3079
(dp3080
g14
I00
sg29
I01
sg46
g51
sg15
I00
sbsg17
g18
sg16
I52
sg39
g0
(g53
g2
Ntp3081
Rp3082
(dp3083
g14
I00
sg29
I01
sg15
I00
sg57
g91
sg61
g60
sg59
g60
sbsg31
g173
sg32
g62
sbsg953
g955
sS'ak6PFL1Offset'
p3084
g0
(g7
g2
Ntp3085
Rp3086
(dp3087
g11
(lp3088
g137
ag138
ag40
ag41
asg14
I00
sg15
I00
sg40
g0
(g42
g2
Ntp3089
Rp3090
(dp3091
g14
I00
sg29
I01
sg46
g1744
sg15
I01
sbsg137
g0
(g143
g2
Ntp3092
Rp3093
(dp3094
g14
I00
sg29
I01
sg46
I4
sg15
I00
sbsg17
g52
sg41
g0
(g42
g2
Ntp3095
Rp3096
(dp3097
g14
I00
sg29
I01
sg46
g150
sg15
I00
sbsg138
g0
(g42
g2
Ntp3098
Rp3099
(dp3100
g14
I00
sg29
I01
sg46
g154
sg15
I00
sbsg16
I26
sg31
g3084
sg32
g155
sbsg125
g0
(g7
g2
Ntp3101
Rp3102
(dp3103
g11
(lp3104
g39
ag40
ag41
asg14
I00
sg15
I00
sg40
g0
(g42
g2
Ntp3105
Rp3106
(dp3107
g14
I00
sg29
I01
sg46
g1344
sg15
I01
sbsg41
g0
(g42
g2
Ntp3108
Rp3109
(dp3110
g14
I00
sg29
I01
sg46
g51
sg15
I00
sbsg17
g52
sg16
I74
sg39
g0
(g53
g2
Ntp3111
Rp3112
(dp3113
g14
I00
sg29
I01
sg15
I00
sg57
g91
sg59
g60
sg61
g60
sbsg31
g125
sg32
g62
sbsS'ak3PFL1FastjetL2L3Residual'
p3114
g0
(g7
g2
Ntp3115
Rp3116
(dp3117
g11
(lp3118
g13
asg14
I00
sg15
I00
sg16
I52
sg17
g18
sg13
g0
(g19
g20
(lp3119
g2111
ag1383
ag1384
ag1886
atp3120
Rp3121
(dp3122
g14
I00
sg29
I01
sg15
I00
sg30
I1
sbsg31
g3114
sg32
g33
sbsg1800
g0
(g7
g2
Ntp3123
Rp3124
(dp3125
g11
(lp3126
g40
ag41
asg14
I00
sg15
I00
sg40
g0
(g42
g2
Ntp3127
Rp3128
(dp3129
g14
I00
sg29
I01
sg46
g1205
sg15
I01
sbsg41
g0
(g42
g2
Ntp3130
Rp3131
(dp3132
g14
I00
sg29
I01
sg46
g104
sg15
I00
sbsg17
g52
sg16
I122
sg31
g1800
sg32
g105
sbsS'ak9PFCHSL2L3Residual'
p3133
g0
(g7
g2
Ntp3134
Rp3135
(dp3136
g11
(lp3137
g13
asg14
I00
sg15
I00
sg16
I52
sg17
g18
sg13
g0
(g19
g20
(lp3138
g906
ag1730
ag2511
atp3139
Rp3140
(dp3141
g14
I00
sg29
I01
sg15
I00
sg30
I1
sbsg31
g3133
sg32
g33
sbsg3041
g0
(g7
g2
Ntp3142
Rp3143
(dp3144
g11
(lp3145
g39
ag40
ag41
asg14
I00
sg15
I00
sg40
g0
(g42
g2
Ntp3146
Rp3147
(dp3148
g14
I00
sg29
I01
sg46
g2738
sg15
I01
sbsg41
g0
(g42
g2
Ntp3149
Rp3150
(dp3151
g14
I00
sg29
I01
sg46
g51
sg15
I00
sbsg17
g52
sg16
I76
sg39
g0
(g53
g2
Ntp3152
Rp3153
(dp3154
g14
I00
sg29
I01
sg15
I00
sg57
g91
sg59
g60
sg61
g60
sbsg31
g3041
sg32
g62
sbsS'ak1PFCHSL2L3'
p3155
g0
(g7
g2
Ntp3156
Rp3157
(dp3158
g11
(lp3159
g13
asg14
I00
sg15
I00
sg16
I52
sg17
g18
sg13
g0
(g19
g20
(lp3160
g2659
ag831
atp3161
Rp3162
(dp3163
g14
I00
sg29
I01
sg15
I00
sg30
I1
sbsg31
g3155
sg32
g33
sbsg2659
g0
(g7
g2
Ntp3164
Rp3165
(dp3166
g11
(lp3167
g40
ag41
asg14
I00
sg15
I00
sg40
g0
(g42
g2
Ntp3168
Rp3169
(dp3170
g14
I00
sg29
I01
sg46
g839
sg15
I01
sbsg41
g0
(g42
g2
Ntp3171
Rp3172
(dp3173
g14
I00
sg29
I01
sg46
g364
sg15
I00
sbsg17
g52
sg16
I92
sg31
g2659
sg32
g105
sbsg653
g1024
sS'ak10PFCHSL2L3'
p3174
g0
(g7
g2
Ntp3175
Rp3176
(dp3177
g11
(lp3178
g13
asg14
I00
sg15
I00
sg16
I52
sg17
g18
sg13
g0
(g19
g20
(lp3179
g70
ag71
atp3180
Rp3181
(dp3182
g14
I00
sg29
I01
sg15
I00
sg30
I1
sbsg31
g3174
sg32
g33
sbsg2556
g0
(g7
g2
Ntp3183
Rp3184
(dp3185
g11
(lp3186
g137
ag138
ag40
ag41
asg14
I00
sg15
I00
sg40
g0
(g42
g2
Ntp3187
Rp3188
(dp3189
g14
I00
sg29
I01
sg46
g2726
sg15
I01
sbsg137
g0
(g143
g2
Ntp3190
Rp3191
(dp3192
g14
I00
sg29
I01
sg46
I4
sg15
I00
sbsg17
g52
sg41
g0
(g42
g2
Ntp3193
Rp3194
(dp3195
g14
I00
sg29
I01
sg46
g150
sg15
I00
sbsg138
g0
(g42
g2
Ntp3196
Rp3197
(dp3198
g14
I00
sg29
I01
sg46
g154
sg15
I00
sbsg16
I27
sg31
g2556
sg32
g155
sbsS'kt4CaloL2L3'
p3199
g0
(g7
g2
Ntp3200
Rp3201
(dp3202
g11
(lp3203
g13
asg14
I00
sg15
I00
sg16
I52
sg17
g18
sg13
g0
(g19
g20
(lp3204
g1228
ag1229
atp3205
Rp3206
(dp3207
g14
I00
sg29
I01
sg15
I00
sg30
I1
sbsg31
g3199
sg32
g33
sbsg635
g637
sg1281
g1283
sg2510
g0
(g7
g2
Ntp3208
Rp3209
(dp3210
g11
(lp3211
g39
ag40
ag41
asg14
I00
sg15
I00
sg40
g0
(g42
g2
Ntp3212
Rp3213
(dp3214
g14
I00
sg29
I01
sg46
g914
sg15
I01
sbsg41
g0
(g42
g2
Ntp3215
Rp3216
(dp3217
g14
I00
sg29
I01
sg46
g51
sg15
I00
sbsg17
g52
sg16
I77
sg39
g0
(g53
g2
Ntp3218
Rp3219
(dp3220
g14
I00
sg29
I01
sg15
I00
sg57
g91
sg59
g60
sg61
g60
sbsg31
g2510
sg32
g62
sbsg312
g1063
sg1019
g0
(g7
g2
Ntp3221
Rp3222
(dp3223
g11
(lp3224
g40
ag41
asg14
I00
sg15
I00
sg40
g0
(g42
g2
Ntp3225
Rp3226
(dp3227
g14
I00
sg29
I01
sg46
g47
sg15
I01
sbsg41
g0
(g42
g2
Ntp3228
Rp3229
(dp3230
g14
I00
sg29
I01
sg46
g104
sg15
I00
sbsg17
g52
sg16
I114
sg31
g1019
sg32
g105
sbsg106
g108
sS'ak7JPTL2L3'
p3231
g0
(g7
g2
Ntp3232
Rp3233
(dp3234
g11
(lp3235
g13
asg14
I00
sg15
I00
sg16
I52
sg17
g18
sg13
g0
(g19
g20
(lp3236
g2811
ag197
ag198
atp3237
Rp3238
(dp3239
g14
I00
sg29
I01
sg15
I00
sg30
I1
sbsg31
g3231
sg32
g33
sbsS'ak2PFL2L3Residual'
p3240
g0
(g7
g2
Ntp3241
Rp3242
(dp3243
g11
(lp3244
g13
asg14
I00
sg15
I00
sg16
I52
sg17
g18
sg13
g0
(g19
g20
(lp3245
g2311
ag92
ag2312
atp3246
Rp3247
(dp3248
g14
I00
sg29
I01
sg15
I00
sg30
I1
sbsg31
g3240
sg32
g33
sbsS'ak4PFCHSL1FastL2L3'
p3249
g0
(g7
g2
Ntp3250
Rp3251
(dp3252
g11
(lp3253
g13
asg14
I00
sg15
I00
sg16
I214
sg17
g612
sg13
g0
(g19
g20
(lp3254
g1913
ag600
ag1394
atp3255
Rp3256
(dp3257
g14
I00
sg29
I01
sg15
I00
sg30
I1
sbsg31
g3249
sg32
g33
sbsg655
g0
(g7
g2
Ntp3258
Rp3259
(dp3260
g11
(lp3261
g40
ag41
asg14
I00
sg15
I00
sg40
g0
(g42
g2
Ntp3262
Rp3263
(dp3264
g14
I00
sg29
I01
sg46
g1030
sg15
I01
sbsg41
g0
(g42
g2
Ntp3265
Rp3266
(dp3267
g14
I00
sg29
I01
sg46
g303
sg15
I00
sbsg17
g52
sg16
I153
sg31
g655
sg32
g105
sbsg23
g0
(g7
g2
Ntp3268
Rp3269
(dp3270
g11
(lp3271
g40
ag41
asg14
I00
sg15
I00
sg40
g0
(g42
g2
Ntp3272
Rp3273
(dp3274
g14
I00
sg29
I01
sg46
g1120
sg15
I01
sbsg41
g0
(g42
g2
Ntp3275
Rp3276
(dp3277
g14
I00
sg29
I01
sg46
g364
sg15
I00
sbsg17
g612
sg16
I78
sg31
g23
sg32
g105
sbsg255
g257
sg128
g1338
sg2811
g0
(g7
g2
Ntp3278
Rp3279
(dp3280
g11
(lp3281
g1116
ag40
ag41
asg14
I00
sg15
I00
sg40
g0
(g42
g2
Ntp3282
Rp3283
(dp3284
g14
I00
sg29
I01
sg46
S'AK7JPT'
p3285
sg15
I00
sbsg41
g0
(g42
g2
Ntp3286
Rp3287
(dp3288
g14
I00
sg29
I01
sg46
g1124
sg15
I00
sbsg17
g18
sg16
I52
sg31
g2811
sg32
g1125
sg1116
g0
(g42
g2
Ntp3289
Rp3290
(dp3291
g14
I00
sg29
I01
sg46
g1017
sg15
I00
sbsbsS'ak6PFCHSL1Fastjet'
p3292
g0
(g7
g2
Ntp3293
Rp3294
(dp3295
g11
(lp3296
g39
ag40
ag41
asg14
I00
sg15
I00
sg40
g0
(g42
g2
Ntp3297
Rp3298
(dp3299
g14
I00
sg29
I01
sg46
g2726
sg15
I01
sbsg41
g0
(g42
g2
Ntp3300
Rp3301
(dp3302
g14
I00
sg29
I01
sg46
g51
sg15
I00
sbsg17
g52
sg16
I71
sg39
g0
(g53
g2
Ntp3303
Rp3304
(dp3305
g14
I00
sg29
I01
sg15
I00
sg57
g91
sg59
g60
sg61
g60
sbsg31
g3292
sg32
g62
sbsS'kt6PFL2L3Residual'
p3306
g0
(g7
g2
Ntp3307
Rp3308
(dp3309
g11
(lp3310
g13
asg14
I00
sg15
I00
sg16
I52
sg17
g18
sg13
g0
(g19
g20
(lp3311
g113
ag114
ag115
atp3312
Rp3313
(dp3314
g14
I00
sg29
I01
sg15
I00
sg30
I1
sbsg31
g3306
sg32
g33
sbsS'ak5PFL2L3Residual'
p3315
g0
(g7
g2
Ntp3316
Rp3317
(dp3318
g11
(lp3319
g13
asg14
I00
sg15
I00
sg16
I52
sg17
g18
sg13
g0
(g19
g20
(lp3320
g653
ag654
ag655
atp3321
Rp3322
(dp3323
g14
I00
sg29
I01
sg15
I00
sg30
I1
sbsg31
g3315
sg32
g33
sbsg1091
g1093
sg114
g1102
sS'ak7JPTL1FastL2L3'
p3324
g0
(g7
g2
Ntp3325
Rp3326
(dp3327
g11
(lp3328
g13
asg14
I00
sg15
I00
sg16
I52
sg17
g18
sg13
g0
(g19
g20
(lp3329
g196
ag197
ag198
atp3330
Rp3331
(dp3332
g14
I00
sg29
I01
sg15
I00
sg30
I1
sbsg31
g3324
sg32
g33
sbsS'SiStripRecHitMatcherESProducer'
p3333
g0
(g7
g2
Ntp3334
Rp3335
(dp3336
g11
(lp3337
S'PreFilter'
p3338
aS'ComponentName'
p3339
aS'NSigmaInside'
p3340
asg14
I00
sg15
I00
sg17
g18
sg3339
g0
(g42
g2
Ntp3341
Rp3342
(dp3343
g14
I00
sg29
I01
sg46
S'StandardMatcher'
p3344
sg15
I00
sbsg3338
g0
(g250
g2
Ntp3345
Rp3346
(dp3347
g14
I00
sg29
I01
sg46
I00
sg15
I00
sbsg16
I52
sg3340
g0
(g489
g2
Ntp3348
Rp3349
(dp3350
g14
I00
sg29
I01
sg46
F3.0
sg15
I00
sbsg31
g3333
sg32
g3333
sbsS'ak7CaloL1L2L3Residual'
p3351
g0
(g7
g2
Ntp3352
Rp3353
(dp3354
g11
(lp3355
g13
asg14
I00
sg15
I00
sg16
I52
sg17
g18
sg13
g0
(g19
g20
(lp3356
g1017
ag1018
ag1019
ag635
atp3357
Rp3358
(dp3359
g14
I00
sg29
I01
sg15
I00
sg30
I1
sbsg31
g3351
sg32
g33
sbsS'ak1PFCHSL2L3Residual'
p3360
g0
(g7
g2
Ntp3361
Rp3362
(dp3363
g11
(lp3364
g13
asg14
I00
sg15
I00
sg16
I52
sg17
g18
sg13
g0
(g19
g20
(lp3365
g2659
ag831
ag2000
atp3366
Rp3367
(dp3368
g14
I00
sg29
I01
sg15
I00
sg30
I1
sbsg31
g3360
sg32
g33
sbsg24
g0
(g7
g2
Ntp3369
Rp3370
(dp3371
g11
(lp3372
g40
ag41
asg14
I00
sg15
I00
sg40
g0
(g42
g2
Ntp3373
Rp3374
(dp3375
g14
I00
sg29
I01
sg46
g1120
sg15
I01
sbsg41
g0
(g42
g2
Ntp3376
Rp3377
(dp3378
g14
I00
sg29
I01
sg46
g104
sg15
I00
sbsg17
g612
sg16
I89
sg31
g24
sg32
g105
sbsg731
g1113
sS'kt6PFL1L2L3'
p3379
g0
(g7
g2
Ntp3380
Rp3381
(dp3382
g11
(lp3383
g13
asg14
I00
sg15
I00
sg16
I52
sg17
g18
sg13
g0
(g19
g20
(lp3384
g112
ag113
ag114
atp3385
Rp3386
(dp3387
g14
I00
sg29
I01
sg15
I00
sg30
I1
sbsg31
g3379
sg32
g33
sbsS'ak10PFL2L3Residual'
p3388
g0
(g7
g2
Ntp3389
Rp3390
(dp3391
g11
(lp3392
g13
asg14
I00
sg15
I00
sg16
I52
sg17
g18
sg13
g0
(g19
g20
(lp3393
g594
ag595
ag596
atp3394
Rp3395
(dp3396
g14
I00
sg29
I01
sg15
I00
sg30
I1
sbsg31
g3388
sg32
g33
sbsS'ak4JPTL2L3Residual'
p3397
g0
(g7
g2
Ntp3398
Rp3399
(dp3400
g11
(lp3401
g13
asg14
I00
sg15
I00
sg16
I52
sg17
g18
sg13
g0
(g19
g20
(lp3402
g22
ag23
ag24
ag25
atp3403
Rp3404
(dp3405
g14
I00
sg29
I01
sg15
I00
sg30
I1
sbsg31
g3397
sg32
g33
sbsg76
g78
sg2511
g0
(g7
g2
Ntp3406
Rp3407
(dp3408
g11
(lp3409
g40
ag41
asg14
I00
sg15
I00
sg40
g0
(g42
g2
Ntp3410
Rp3411
(dp3412
g14
I00
sg29
I01
sg46
g914
sg15
I01
sbsg41
g0
(g42
g2
Ntp3413
Rp3414
(dp3415
g14
I00
sg29
I01
sg46
g303
sg15
I00
sbsg17
g52
sg16
I162
sg31
g2511
sg32
g105
sbsg69
g0
(g7
g2
Ntp3416
Rp3417
(dp3418
g11
(lp3419
g137
ag138
ag40
ag41
asg14
I00
sg15
I00
sg40
g0
(g42
g2
Ntp3420
Rp3421
(dp3422
g14
I00
sg29
I01
sg46
g299
sg15
I01
sbsg137
g0
(g143
g2
Ntp3423
Rp3424
(dp3425
g14
I00
sg29
I01
sg46
I4
sg15
I00
sbsg17
g52
sg41
g0
(g42
g2
Ntp3426
Rp3427
(dp3428
g14
I00
sg29
I01
sg46
g150
sg15
I00
sbsg138
g0
(g42
g2
Ntp3429
Rp3430
(dp3431
g14
I00
sg29
I01
sg46
g154
sg15
I00
sbsg16
I35
sg31
g69
sg32
g155
sbsg1996
g0
(g7
g2
Ntp3432
Rp3433
(dp3434
g11
(lp3435
g232
ag233
ag234
ag40
ag41
asg14
I00
sg15
I00
sg40
g0
(g42
g2
Ntp3436
Rp3437
(dp3438
g14
I00
sg29
I01
sg46
g60
sg15
I00
sbsg232
g0
(g53
g2
Ntp3439
Rp3440
(dp3441
g14
I00
sg29
I01
sg15
I00
sg57
S'ak4PFJetsSoftElectronTagInfos'
p3442
sg61
g60
sg59
g60
sbsg17
g18
sg41
g0
(g42
g2
Ntp3443
Rp3444
(dp3445
g14
I00
sg29
I01
sg46
g245
sg15
I00
sbsg233
g0
(g53
g2
Ntp3446
Rp3447
(dp3448
g14
I00
sg29
I01
sg15
I00
sg57
S'ak4PFJetsSoftMuonTagInfos'
p3449
sg61
g60
sg59
g60
sbsg16
I52
sg234
g0
(g250
g2
Ntp3450
Rp3451
(dp3452
g14
I00
sg29
I01
sg46
I00
sg15
I00
sbsg31
g1996
sg32
g254
sbsS'ak4CaloL2L3'
p3453
g0
(g7
g2
Ntp3454
Rp3455
(dp3456
g11
(lp3457
g13
asg14
I00
sg15
I00
sg16
I52
sg17
g18
sg13
g0
(g19
g20
(lp3458
g209
ag210
atp3459
Rp3460
(dp3461
g14
I00
sg29
I01
sg15
I00
sg30
I1
sbsg31
g3453
sg32
g33
sbsS'kt4PFL2L3L6'
p3462
g0
(g7
g2
Ntp3463
Rp3464
(dp3465
g11
(lp3466
g13
asg14
I00
sg15
I00
sg16
I751
sg17
g52
sg13
g0
(g19
g20
(lp3467
g162
ag163
ag613
atp3468
Rp3469
(dp3470
g14
I00
sg29
I01
sg15
I00
sg30
I1
sbsg31
g3462
sg32
g33
sbsg879
g1140
sS'ak7CaloL1FastL2L3'
p3471
g0
(g7
g2
Ntp3472
Rp3473
(dp3474
g11
(lp3475
g13
asg14
I00
sg15
I00
sg16
I599
sg17
g52
sg13
g0
(g19
g20
(lp3476
g310
ag1018
ag1019
atp3477
Rp3478
(dp3479
g14
I00
sg29
I01
sg15
I00
sg30
I1
sbsg31
g3471
sg32
g33
sbsS'ic5CaloL1FastL2L3Residual'
p3480
g0
(g7
g2
Ntp3481
Rp3482
(dp3483
g11
(lp3484
g13
asg14
I00
sg15
I00
sg16
I52
sg17
g18
sg13
g0
(g19
g20
(lp3485
g2039
ag849
ag850
ag851
atp3486
Rp3487
(dp3488
g14
I00
sg29
I01
sg15
I00
sg30
I1
sbsg31
g3480
sg32
g33
sbsS'kt4PFL1L2L3'
p3489
g0
(g7
g2
Ntp3490
Rp3491
(dp3492
g11
(lp3493
g13
asg14
I00
sg15
I00
sg16
I52
sg17
g18
sg13
g0
(g19
g20
(lp3494
g1034
ag162
ag163
atp3495
Rp3496
(dp3497
g14
I00
sg29
I01
sg15
I00
sg30
I1
sbsg31
g3489
sg32
g33
sbsg288
g0
(g7
g2
Ntp3498
Rp3499
(dp3500
g11
(lp3501
g40
ag41
asg14
I00
sg15
I00
sg40
g0
(g42
g2
Ntp3502
Rp3503
(dp3504
g14
I00
sg29
I01
sg46
g2726
sg15
I01
sbsg41
g0
(g42
g2
Ntp3505
Rp3506
(dp3507
g14
I00
sg29
I01
sg46
g104
sg15
I00
sbsg17
g52
sg16
I128
sg31
g288
sg32
g105
sbsg1913
g0
(g7
g2
Ntp3508
Rp3509
(dp3510
g11
(lp3511
g39
ag40
ag41
asg14
I00
sg15
I00
sg40
g0
(g42
g2
Ntp3512
Rp3513
(dp3514
g14
I00
sg29
I01
sg46
g608
sg15
I00
sbsg41
g0
(g42
g2
Ntp3515
Rp3516
(dp3517
g14
I00
sg29
I01
sg46
g51
sg15
I00
sbsg17
g18
sg16
I52
sg39
g0
(g53
g2
Ntp3518
Rp3519
(dp3520
g14
I00
sg29
I01
sg15
I00
sg57
g91
sg61
g60
sg59
g60
sbsg31
g1913
sg32
g62
sbsS'kt4CaloL2L3Residual'
p3521
g0
(g7
g2
Ntp3522
Rp3523
(dp3524
g11
(lp3525
g13
asg14
I00
sg15
I00
sg16
I52
sg17
g18
sg13
g0
(g19
g20
(lp3526
g1228
ag1229
ag1230
atp3527
Rp3528
(dp3529
g14
I00
sg29
I01
sg15
I00
sg30
I1
sbsg31
g3521
sg32
g33
sbsg162
g0
(g7
g2
Ntp3530
Rp3531
(dp3532
g11
(lp3533
g40
ag41
asg14
I00
sg15
I00
sg40
g0
(g42
g2
Ntp3534
Rp3535
(dp3536
g14
I00
sg29
I01
sg46
g1042
sg15
I01
sbsg41
g0
(g42
g2
Ntp3537
Rp3538
(dp3539
g14
I00
sg29
I01
sg46
g364
sg15
I00
sbsg17
g52
sg16
I109
sg31
g162
sg32
g105
sbsS'ak4CaloL1L2L3'
p3540
g0
(g7
g2
Ntp3541
Rp3542
(dp3543
g11
(lp3544
g13
asg14
I00
sg15
I00
sg16
I52
sg17
g18
sg13
g0
(g19
g20
(lp3545
g132
ag209
ag210
atp3546
Rp3547
(dp3548
g14
I00
sg29
I01
sg15
I00
sg30
I1
sbsg31
g3540
sg32
g33
sbsS'siStripGainESProducer'
p3549
g0
(g7
g2
Ntp3550
Rp3551
(dp3552
g11
(lp3553
S'printDebug'
p3554
ag1363
aS'APVGain'
p3555
aS'AutomaticNormalization'
p3556
asg14
I00
sg1363
g0
(g42
g2
Ntp3557
Rp3558
(dp3559
g14
I00
sg29
I01
sg46
g60
sg15
I00
sbsg15
I00
sg3556
g0
(g250
g2
Ntp3560
Rp3561
(dp3562
g14
I00
sg29
I01
sg46
I00
sg15
I00
sbsg16
I52
sg3554
g0
(g250
g2
Ntp3563
Rp3564
(dp3565
g14
I00
sg29
I00
sg46
I00
sg15
I00
sbsg17
g18
sg3555
g0
(g1475
g20
(lp3566
g0
(g424
g2
Ntp3567
Rp3568
(dp3569
g14
I00
sg29
I01
sg15
I00
sS'Label'
p3570
g0
(g42
g2
Ntp3571
Rp3572
(dp3573
g14
I00
sg29
I00
sg46
g60
sg15
I00
sbsS'Record'
p3574
g0
(g42
g2
Ntp3575
Rp3576
(dp3577
g14
I00
sg29
I01
sg46
S'SiStripApvGainRcd'
p3578
sg15
I00
sbsS'NormalizationFactor'
p3579
g0
(g489
g2
Ntp3580
Rp3581
(dp3582
g14
I00
sg29
I00
sg46
F1.0
sg15
I00
sbsg11
(lp3583
g3574
ag3579
ag3570
asbag0
(g424
g2
Ntp3584
Rp3585
(dp3586
g14
I00
sg29
I01
sg15
I00
sg3570
g0
(g42
g2
Ntp3587
Rp3588
(dp3589
g14
I00
sg29
I00
sg46
g60
sg15
I00
sbsg3574
g0
(g42
g2
Ntp3590
Rp3591
(dp3592
g14
I00
sg29
I01
sg46
S'SiStripApvGain2Rcd'
p3593
sg15
I00
sbsg3579
g0
(g489
g2
Ntp3594
Rp3595
(dp3596
g14
I00
sg29
I00
sg46
F1.0
sg15
I00
sbsg11
(lp3597
g3574
ag3579
ag3570
asbatp3598
Rp3599
(dp3600
g14
I00
sg29
I01
sg15
I00
sg30
I1
sbsg31
g3549
sg32
S'SiStripGainESProducer'
p3601
sbsS'ak7PFL2L3L6'
p3602
g0
(g7
g2
Ntp3603
Rp3604
(dp3605
g11
(lp3606
g13
asg14
I00
sg15
I00
sg16
I749
sg17
g52
sg13
g0
(g19
g20
(lp3607
g879
ag880
ag2956
atp3608
Rp3609
(dp3610
g14
I00
sg29
I01
sg15
I00
sg30
I1
sbsg31
g3602
sg32
g33
sbsg1149
g1151
sg1158
g1160
sg2403
g0
(g7
g2
Ntp3611
Rp3612
(dp3613
g11
(lp3614
g39
ag40
ag41
asg14
I00
sg15
I00
sg40
g0
(g42
g2
Ntp3615
Rp3616
(dp3617
g14
I00
sg29
I01
sg46
g223
sg15
I01
sbsg41
g0
(g42
g2
Ntp3618
Rp3619
(dp3620
g14
I00
sg29
I01
sg46
g51
sg15
I00
sbsg17
g52
sg16
I75
sg39
g0
(g53
g2
Ntp3621
Rp3622
(dp3623
g14
I00
sg29
I01
sg15
I00
sg57
g91
sg59
g60
sg61
g60
sbsg31
g2403
sg32
g62
sbsg1179
g1181
sS'sistripconn'
p3624
g0
(g7
g2
Ntp3625
Rp3626
(dp3627
g11
(lp3628
sg14
I00
sg15
I00
sg16
I52
sg17
g18
sg31
g3624
sg32
S'SiStripConnectivity'
p3629
sbsS'ak6PFCHSL1FastjetL2L3Residual'
p3630
g0
(g7
g2
Ntp3631
Rp3632
(dp3633
g11
(lp3634
g13
asg14
I00
sg15
I00
sg16
I52
sg17
g18
sg13
g0
(g19
g20
(lp3635
g3292
ag287
ag288
ag2557
atp3636
Rp3637
(dp3638
g14
I00
sg29
I01
sg15
I00
sg30
I1
sbsg31
g3630
sg32
g33
sbsg1933
g0
(g7
g2
Ntp3639
Rp3640
(dp3641
g11
(lp3642
g39
ag40
ag41
asg14
I00
sg15
I00
sg40
g0
(g42
g2
Ntp3643
Rp3644
(dp3645
g14
I00
sg29
I01
sg46
g1205
sg15
I01
sbsg41
g0
(g42
g2
Ntp3646
Rp3647
(dp3648
g14
I00
sg29
I01
sg46
g51
sg15
I00
sbsg17
g52
sg16
I65
sg39
g0
(g53
g2
Ntp3649
Rp3650
(dp3651
g14
I00
sg29
I01
sg15
I00
sg57
g91
sg59
g60
sg61
g60
sbsg31
g1933
sg32
g62
sbsg1724
g1726
sS'ak4PFL1FastL2L3'
p3652
g0
(g7
g2
Ntp3653
Rp3654
(dp3655
g11
(lp3656
g13
asg14
I00
sg15
I00
sg16
I212
sg17
g612
sg13
g0
(g19
g20
(lp3657
g173
ag1215
ag1216
atp3658
Rp3659
(dp3660
g14
I00
sg29
I01
sg15
I00
sg30
I1
sbsg31
g3652
sg32
g33
sbsS'ak7PFL1Fastjet'
p3661
g0
(g7
g2
Ntp3662
Rp3663
(dp3664
g11
(lp3665
g39
ag40
ag41
asg14
I00
sg15
I00
sg40
g0
(g42
g2
Ntp3666
Rp3667
(dp3668
g14
I00
sg29
I01
sg46
g863
sg15
I01
sbsg41
g0
(g42
g2
Ntp3669
Rp3670
(dp3671
g14
I00
sg29
I01
sg46
g51
sg15
I00
sbsg17
g52
sg16
I72
sg39
g0
(g53
g2
Ntp3672
Rp3673
(dp3674
g14
I00
sg29
I01
sg15
I00
sg57
g91
sg59
g60
sg61
g60
sbsg31
g3661
sg32
g62
sbsS'siStripLorentzAngleDepESProducer'
p3675
g0
(g7
g2
Ntp3676
Rp3677
(dp3678
g11
(lp3679
g675
aS'LorentzAngleDeconvMode'
p3680
aS'LorentzAnglePeakMode'
p3681
asg14
I00
sg15
I00
sg16
I52
sg17
g18
sg675
g0
(g424
g2
Ntp3682
Rp3683
(dp3684
g14
I00
sg29
I01
sg15
I00
sg681
g0
(g42
g2
Ntp3685
Rp3686
(dp3687
g14
I00
sg29
I00
sg46
g60
sg15
I00
sbsg685
g0
(g42
g2
Ntp3688
Rp3689
(dp3690
g14
I00
sg29
I01
sg46
g689
sg15
I00
sbsg11
(lp3691
g685
ag681
asbsg31
g3675
sg3681
g0
(g424
g2
Ntp3692
Rp3693
(dp3694
g14
I00
sg29
I01
sg15
I00
sg681
g0
(g42
g2
Ntp3695
Rp3696
(dp3697
g14
I00
sg29
I00
sg46
g697
sg15
I00
sbsg685
g0
(g42
g2
Ntp3698
Rp3699
(dp3700
g14
I00
sg29
I01
sg46
S'SiStripLorentzAngleRcd'
p3701
sg15
I00
sbsg11
(lp3702
g685
ag681
asbsg32
S'SiStripLorentzAngleDepESProducer'
p3703
sg3680
g0
(g424
g2
Ntp3704
Rp3705
(dp3706
g14
I00
sg29
I01
sg15
I00
sg681
g0
(g42
g2
Ntp3707
Rp3708
(dp3709
g14
I00
sg29
I00
sg46
g709
sg15
I00
sbsg685
g0
(g42
g2
Ntp3710
Rp3711
(dp3712
g14
I00
sg29
I01
sg46
g3701
sg15
I00
sbsg11
(lp3713
g685
ag681
asbsbsg184
g0
(g7
g2
Ntp3714
Rp3715
(dp3716
g11
(lp3717
g40
ag41
asg14
I00
sg15
I00
sg40
g0
(g42
g2
Ntp3718
Rp3719
(dp3720
g14
I00
sg29
I01
sg46
g1831
sg15
I01
sbsg41
g0
(g42
g2
Ntp3721
Rp3722
(dp3723
g14
I00
sg29
I01
sg46
g364
sg15
I00
sbsg17
g52
sg16
I98
sg31
g184
sg32
g105
sbsg593
g0
(g7
g2
Ntp3724
Rp3725
(dp3726
g11
(lp3727
g137
ag138
ag40
ag41
asg14
I00
sg15
I00
sg40
g0
(g42
g2
Ntp3728
Rp3729
(dp3730
g14
I00
sg29
I01
sg46
g772
sg15
I01
sbsg137
g0
(g143
g2
Ntp3731
Rp3732
(dp3733
g14
I00
sg29
I01
sg46
I4
sg15
I00
sbsg17
g52
sg41
g0
(g42
g2
Ntp3734
Rp3735
(dp3736
g14
I00
sg29
I01
sg46
g150
sg15
I00
sbsg138
g0
(g42
g2
Ntp3737
Rp3738
(dp3739
g14
I00
sg29
I01
sg46
g154
sg15
I00
sbsg16
I34
sg31
g593
sg32
g155
sbsg1197
g1199
sg735
g737
sS'ak4PFL2L3'
p3740
g0
(g7
g2
Ntp3741
Rp3742
(dp3743
g11
(lp3744
g13
asg14
I00
sg15
I00
sg16
I52
sg17
g18
sg13
g0
(g19
g20
(lp3745
g1215
ag1216
atp3746
Rp3747
(dp3748
g14
I00
sg29
I01
sg15
I00
sg30
I1
sbsg31
g3740
sg32
g33
sbsg926
g0
(g7
g2
Ntp3749
Rp3750
(dp3751
g11
(lp3752
g40
ag41
asg14
I00
sg15
I00
sg40
g0
(g42
g2
Ntp3753
Rp3754
(dp3755
g14
I00
sg29
I01
sg46
g2738
sg15
I01
sbsg41
g0
(g42
g2
Ntp3756
Rp3757
(dp3758
g14
I00
sg29
I01
sg46
g303
sg15
I00
sbsg17
g52
sg16
I161
sg31
g926
sg32
g105
sbsg186
g0
(g7
g2
Ntp3759
Rp3760
(dp3761
g11
(lp3762
g40
ag41
asg14
I00
sg15
I00
sg40
g0
(g42
g2
Ntp3763
Rp3764
(dp3765
g14
I00
sg29
I01
sg46
g1831
sg15
I01
sbsg41
g0
(g42
g2
Ntp3766
Rp3767
(dp3768
g14
I00
sg29
I01
sg46
g303
sg15
I00
sbsg17
g52
sg16
I154
sg31
g186
sg32
g105
sbsg1209
g1211
sS'ak4PFL2L3Residual'
p3769
g0
(g7
g2
Ntp3770
Rp3771
(dp3772
g11
(lp3773
g13
asg14
I00
sg15
I00
sg16
I52
sg17
g18
sg13
g0
(g19
g20
(lp3774
g1215
ag1216
ag1217
atp3775
Rp3776
(dp3777
g14
I00
sg29
I01
sg15
I00
sg30
I1
sbsg31
g3769
sg32
g33
sbsS'stripCPEESProducer'
p3778
g0
(g7
g2
Ntp3779
Rp3780
(dp3781
g11
(lp3782
S'ComponentType'
p3783
ag3339
aS'parameters'
p3784
asg14
I00
sg15
I00
sg3784
g0
(g424
g2
Ntp3785
Rp3786
(dp3787
g14
I00
sg29
I01
sg15
I00
sg11
(lp3788
sbsg16
I52
sg3339
g0
(g42
g2
Ntp3789
Rp3790
(dp3791
g14
I00
sg29
I01
sg46
S'stripCPE'
p3792
sg15
I00
sbsg3783
g0
(g42
g2
Ntp3793
Rp3794
(dp3795
g14
I00
sg29
I01
sg46
S'SimpleStripCPE'
p3796
sg15
I00
sbsg17
g18
sg31
g3778
sg32
S'StripCPEESProducer'
p3797
sbsg2658
g0
(g7
g2
Ntp3798
Rp3799
(dp3800
g11
(lp3801
g137
ag138
ag40
ag41
asg14
I00
sg15
I00
sg40
g0
(g42
g2
Ntp3802
Rp3803
(dp3804
g14
I00
sg29
I01
sg46
g839
sg15
I01
sbsg137
g0
(g143
g2
Ntp3805
Rp3806
(dp3807
g14
I00
sg29
I01
sg46
I4
sg15
I00
sbsg17
g52
sg41
g0
(g42
g2
Ntp3808
Rp3809
(dp3810
g14
I00
sg29
I01
sg46
g150
sg15
I00
sbsg138
g0
(g42
g2
Ntp3811
Rp3812
(dp3813
g14
I00
sg29
I01
sg46
g154
sg15
I00
sbsg16
I19
sg31
g2658
sg32
g155
sbsg262
g780
sS'ak4CaloL1L2L3Residual'
p3814
g0
(g7
g2
Ntp3815
Rp3816
(dp3817
g11
(lp3818
g13
asg14
I00
sg15
I00
sg16
I52
sg17
g18
sg13
g0
(g19
g20
(lp3819
g132
ag209
ag210
ag211
atp3820
Rp3821
(dp3822
g14
I00
sg29
I01
sg15
I00
sg30
I1
sbsg31
g3814
sg32
g33
sbsg1135
g1235
sg2310
g0
(g7
g2
Ntp3823
Rp3824
(dp3825
g11
(lp3826
g137
ag138
ag40
ag41
asg14
I00
sg15
I00
sg40
g0
(g42
g2
Ntp3827
Rp3828
(dp3829
g14
I00
sg29
I01
sg46
g100
sg15
I01
sbsg137
g0
(g143
g2
Ntp3830
Rp3831
(dp3832
g14
I00
sg29
I01
sg46
I4
sg15
I00
sbsg17
g52
sg41
g0
(g42
g2
Ntp3833
Rp3834
(dp3835
g14
I00
sg29
I01
sg46
g150
sg15
I00
sbsg138
g0
(g42
g2
Ntp3836
Rp3837
(dp3838
g14
I00
sg29
I01
sg46
g154
sg15
I00
sbsg16
I20
sg31
g2310
sg32
g155
sbsS'ak8PFL2L3'
p3839
g0
(g7
g2
Ntp3840
Rp3841
(dp3842
g11
(lp3843
g13
asg14
I00
sg15
I00
sg16
I52
sg17
g18
sg13
g0
(g19
g20
(lp3844
g126
ag127
atp3845
Rp3846
(dp3847
g14
I00
sg29
I01
sg15
I00
sg30
I1
sbsg31
g3839
sg32
g33
sbsg1255
g1257
sg1801
g0
(g7
g2
Ntp3848
Rp3849
(dp3850
g11
(lp3851
g40
ag41
asg14
I00
sg15
I00
sg40
g0
(g42
g2
Ntp3852
Rp3853
(dp3854
g14
I00
sg29
I01
sg46
g1205
sg15
I01
sbsg41
g0
(g42
g2
Ntp3855
Rp3856
(dp3857
g14
I00
sg29
I01
sg46
g303
sg15
I00
sbsg17
g52
sg16
I150
sg31
g1801
sg32
g105
sbsg1097
g0
(g7
g2
Ntp3858
Rp3859
(dp3860
g11
(lp3861
g137
ag138
ag40
ag41
asg14
I00
sg15
I00
sg40
g0
(g42
g2
Ntp3862
Rp3863
(dp3864
g14
I00
sg29
I01
sg46
g2047
sg15
I01
sbsg137
g0
(g143
g2
Ntp3865
Rp3866
(dp3867
g14
I00
sg29
I01
sg46
I4
sg15
I00
sbsg17
g52
sg41
g0
(g42
g2
Ntp3868
Rp3869
(dp3870
g14
I00
sg29
I01
sg46
g150
sg15
I00
sbsg138
g0
(g42
g2
Ntp3871
Rp3872
(dp3873
g14
I00
sg29
I01
sg46
g154
sg15
I00
sbsg16
I14
sg31
g1097
sg32
g155
sbsg596
g0
(g7
g2
Ntp3874
Rp3875
(dp3876
g11
(lp3877
g40
ag41
asg14
I00
sg15
I00
sg40
g0
(g42
g2
Ntp3878
Rp3879
(dp3880
g14
I00
sg29
I01
sg46
g772
sg15
I01
sbsg41
g0
(g42
g2
Ntp3881
Rp3882
(dp3883
g14
I00
sg29
I01
sg46
g303
sg15
I00
sbsg17
g52
sg16
I163
sg31
g596
sg32
g105
sbsS'kt4CaloL1FastL2L3'
p3884
g0
(g7
g2
Ntp3885
Rp3886
(dp3887
g11
(lp3888
g13
asg14
I00
sg15
I00
sg16
I601
sg17
g52
sg13
g0
(g19
g20
(lp3889
g310
ag1228
ag1229
atp3890
Rp3891
(dp3892
g14
I00
sg29
I01
sg15
I00
sg30
I1
sbsg31
g3884
sg32
g33
sbsg1174
g0
(g7
g2
Ntp3893
Rp3894
(dp3895
g11
(lp3896
g40
ag41
asg14
I00
sg15
I00
sg40
g0
(g42
g2
Ntp3897
Rp3898
(dp3899
g14
I00
sg29
I01
sg46
g223
sg15
I01
sbsg41
g0
(g42
g2
Ntp3900
Rp3901
(dp3902
g14
I00
sg29
I01
sg46
g364
sg15
I00
sbsg17
g52
sg16
I104
sg31
g1174
sg32
g105
sbsg310
g0
(g7
g2
Ntp3903
Rp3904
(dp3905
g11
(lp3906
g39
ag40
ag41
asg14
I00
sg15
I00
sg40
g0
(g42
g2
Ntp3907
Rp3908
(dp3909
g14
I00
sg29
I01
sg46
g142
sg15
I00
sbsg41
g0
(g42
g2
Ntp3910
Rp3911
(dp3912
g14
I00
sg29
I01
sg46
g51
sg15
I00
sbsg17
g18
sg16
I52
sg39
g0
(g53
g2
Ntp3913
Rp3914
(dp3915
g14
I00
sg29
I01
sg15
I00
sg57
g58
sg61
g60
sg59
g60
sbsg31
g310
sg32
g62
sbsS'ak5PFCHSL1Fastjet'
p3916
g0
(g7
g2
Ntp3917
Rp3918
(dp3919
g11
(lp3920
g39
ag40
ag41
asg14
I00
sg15
I00
sg40
g0
(g42
g2
Ntp3921
Rp3922
(dp3923
g14
I00
sg29
I01
sg46
g1831
sg15
I01
sbsg41
g0
(g42
g2
Ntp3924
Rp3925
(dp3926
g14
I00
sg29
I01
sg46
g51
sg15
I00
sbsg17
g52
sg16
I69
sg39
g0
(g53
g2
Ntp3927
Rp3928
(dp3929
g14
I00
sg29
I01
sg15
I00
sg57
g91
sg59
g60
sg61
g60
sbsg31
g3916
sg32
g62
sbsg850
g0
(g7
g2
Ntp3930
Rp3931
(dp3932
g11
(lp3933
g40
ag41
asg14
I00
sg15
I00
sg40
g0
(g42
g2
Ntp3934
Rp3935
(dp3936
g14
I00
sg29
I01
sg46
g2047
sg15
I01
sbsg41
g0
(g42
g2
Ntp3937
Rp3938
(dp3939
g14
I00
sg29
I01
sg46
g104
sg15
I00
sbsg17
g52
sg16
I117
sg31
g850
sg32
g105
sbsS'ak4JPTL1FastL2L3'
p3940
g0
(g7
g2
Ntp3941
Rp3942
(dp3943
g11
(lp3944
g13
asg14
I00
sg15
I00
sg16
I52
sg17
g18
sg13
g0
(g19
g20
(lp3945
g731
ag23
ag24
atp3946
Rp3947
(dp3948
g14
I00
sg29
I01
sg15
I00
sg30
I1
sbsg31
g3940
sg32
g33
sbsg924
g0
(g7
g2
Ntp3949
Rp3950
(dp3951
g11
(lp3952
g40
ag41
asg14
I00
sg15
I00
sg40
g0
(g42
g2
Ntp3953
Rp3954
(dp3955
g14
I00
sg29
I01
sg46
g2738
sg15
I01
sbsg41
g0
(g42
g2
Ntp3956
Rp3957
(dp3958
g14
I00
sg29
I01
sg46
g364
sg15
I00
sbsg17
g52
sg16
I105
sg31
g924
sg32
g105
sbsg721
g0
(g7
g2
Ntp3959
Rp3960
(dp3961
g11
(lp3962
g137
ag138
ag40
ag41
asg14
I00
sg15
I00
sg40
g0
(g42
g2
Ntp3963
Rp3964
(dp3965
g14
I00
sg29
I01
sg46
g1344
sg15
I01
sbsg137
g0
(g143
g2
Ntp3966
Rp3967
(dp3968
g14
I00
sg29
I01
sg46
I4
sg15
I00
sbsg17
g52
sg41
g0
(g42
g2
Ntp3969
Rp3970
(dp3971
g14
I00
sg29
I01
sg46
g150
sg15
I00
sbsg138
g0
(g42
g2
Ntp3972
Rp3973
(dp3974
g14
I00
sg29
I01
sg46
g154
sg15
I00
sbsg16
I30
sg31
g721
sg32
g155
sbsS'ak6PFL2L3'
p3975
g0
(g7
g2
Ntp3976
Rp3977
(dp3978
g11
(lp3979
g13
asg14
I00
sg15
I00
sg16
I52
sg17
g18
sg13
g0
(g19
g20
(lp3980
g2679
ag2525
atp3981
Rp3982
(dp3983
g14
I00
sg29
I01
sg15
I00
sg30
I1
sbsg31
g3975
sg32
g33
sbsg654
g1349
sg311
g0
(g7
g2
Ntp3984
Rp3985
(dp3986
g11
(lp3987
g40
ag41
asg14
I00
sg15
I00
sg40
g0
(g42
g2
Ntp3988
Rp3989
(dp3990
g14
I00
sg29
I01
sg46
g1069
sg15
I01
sbsg41
g0
(g42
g2
Ntp3991
Rp3992
(dp3993
g14
I00
sg29
I01
sg46
g364
sg15
I00
sbsg17
g612
sg16
I79
sg31
g311
sg32
g105
sbsg1175
g1302
sS'StripCPEfromTrackAngleESProducer'
p3994
g0
(g7
g2
Ntp3995
Rp3996
(dp3997
g11
(lp3998
g3783
ag3339
ag3784
asg14
I00
sg15
I01
sg3784
g0
(g424
g2
Ntp3999
Rp4000
(dp4001
g14
I00
sg29
I01
sS'maxChgOneMIP'
p4002
g0
(g489
g2
Ntp4003
Rp4004
(dp4005
g14
I00
sg29
I01
sg46
F6000.0
sg15
I00
sbsS'mLC_P2'
p4006
g0
(g489
g2
Ntp4007
Rp4008
(dp4009
g14
I00
sg29
I01
sg46
F0.3
sg15
I00
sbsS'mLC_P1'
p4010
g0
(g489
g2
Ntp4011
Rp4012
(dp4013
g14
I00
sg29
I01
sg46
F0.618
sg15
I00
sbsS'mLC_P0'
p4014
g0
(g489
g2
Ntp4015
Rp4016
(dp4017
g14
I00
sg29
I01
sg46
F-0.326
sg15
I00
sbsS'useLegacyError'
p4018
g0
(g250
g2
Ntp4019
Rp4020
(dp4021
g14
I00
sg29
I01
sg46
I00
sg15
I00
sbsS'mTIB_P1'
p4022
g0
(g489
g2
Ntp4023
Rp4024
(dp4025
g14
I00
sg29
I01
sg46
F0.202
sg15
I00
sbsS'mTEC_P1'
p4026
g0
(g489
g2
Ntp4027
Rp4028
(dp4029
g14
I00
sg29
I01
sg46
F0.471
sg15
I00
sbsS'mTEC_P0'
p4030
g0
(g489
g2
Ntp4031
Rp4032
(dp4033
g14
I00
sg29
I01
sg46
F-1.885
sg15
I00
sbsS'mTOB_P0'
p4034
g0
(g489
g2
Ntp4035
Rp4036
(dp4037
g14
I00
sg29
I01
sg46
F-1.026
sg15
I00
sbsS'mTOB_P1'
p4038
g0
(g489
g2
Ntp4039
Rp4040
(dp4041
g14
I00
sg29
I01
sg46
F0.253
sg15
I00
sbsS'mTIB_P0'
p4042
g0
(g489
g2
Ntp4043
Rp4044
(dp4045
g14
I00
sg29
I01
sg46
F-0.742
sg15
I00
sbsg11
(lp4046
g4002
ag4006
ag4010
ag4014
ag4018
ag4026
ag4030
ag4034
ag4038
ag4042
ag4022
aS'mTID_P0'
p4047
aS'mTID_P1'
p4048
asg4047
g0
(g489
g2
Ntp4049
Rp4050
(dp4051
g14
I00
sg29
I01
sg46
F-1.427
sg15
I00
sbsg4048
g0
(g489
g2
Ntp4052
Rp4053
(dp4054
g14
I00
sg29
I01
sg46
F0.433
sg15
I00
sbsg15
I00
sbsg16
I4
sg3339
g0
(g42
g2
Ntp4055
Rp4056
(dp4057
g14
I00
sg29
I01
sg46
S'StripCPEfromTrackAngle'
p4058
sg15
I00
sbsg3783
g0
(g42
g2
Ntp4059
Rp4060
(dp4061
g14
I00
sg29
I01
sg46
g4058
sg15
I00
sbsg17
S'/cvmfs/cms.cern.ch/slc6_amd64_gcc630/cms/cmssw/CMSSW_9_4_2/python/RecoLocalTracker/SiStripRecHitConverter/StripCPEfromTrackAngle_cfi.py'
p4062
sg31
g3994
sg32
g3797
sbsg196
g0
(g7
g2
Ntp4063
Rp4064
(dp4065
g11
(lp4066
g1116
ag40
ag41
asg14
I00
sg15
I00
sg40
g0
(g42
g2
Ntp4067
Rp4068
(dp4069
g14
I00
sg29
I01
sg46
g3285
sg15
I00
sbsg41
g0
(g42
g2
Ntp4070
Rp4071
(dp4072
g14
I00
sg29
I01
sg46
g1124
sg15
I00
sbsg17
g18
sg16
I52
sg31
g196
sg32
g1125
sg1116
g0
(g42
g2
Ntp4073
Rp4074
(dp4075
g14
I00
sg29
I01
sg46
g34
sg15
I00
sbsbsg743
g0
(g7
g2
Ntp4076
Rp4077
(dp4078
g11
(lp4079
g232
ag233
ag234
ag40
ag41
asg14
I00
sg15
I00
sg40
g0
(g42
g2
Ntp4080
Rp4081
(dp4082
g14
I00
sg29
I01
sg46
g60
sg15
I00
sbsg232
g0
(g53
g2
Ntp4083
Rp4084
(dp4085
g14
I00
sg29
I01
sg15
I00
sg57
S'kt6CaloJetsSoftElectronTagInfos'
p4086
sg61
g60
sg59
g60
sbsg17
g52
sg41
g0
(g42
g2
Ntp4087
Rp4088
(dp4089
g14
I00
sg29
I01
sg46
g245
sg15
I00
sbsg233
g0
(g53
g2
Ntp4090
Rp4091
(dp4092
g14
I00
sg29
I01
sg15
I00
sg57
S'kt6CaloJetsSoftMuonTagInfos'
p4093
sg61
g60
sg59
g60
sbsg16
I181
sg234
g0
(g250
g2
Ntp4094
Rp4095
(dp4096
g14
I00
sg29
I01
sg46
I01
sg15
I00
sbsg31
g743
sg32
g254
sbsg1311
g1313
sS'ak10PFCHSL2L3Residual'
p4097
g0
(g7
g2
Ntp4098
Rp4099
(dp4100
g11
(lp4101
g13
asg14
I00
sg15
I00
sg16
I52
sg17
g18
sg13
g0
(g19
g20
(lp4102
g70
ag71
ag72
atp4103
Rp4104
(dp4105
g14
I00
sg29
I01
sg15
I00
sg30
I1
sbsg31
g4097
sg32
g33
sbsg1328
g1330
sg71
g0
(g7
g2
Ntp4106
Rp4107
(dp4108
g11
(lp4109
g40
ag41
asg14
I00
sg15
I00
sg40
g0
(g42
g2
Ntp4110
Rp4111
(dp4112
g14
I00
sg29
I01
sg46
g299
sg15
I01
sbsg41
g0
(g42
g2
Ntp4113
Rp4114
(dp4115
g14
I00
sg29
I01
sg46
g104
sg15
I00
sbsg17
g52
sg16
I136
sg31
g71
sg32
g105
sbsS'ak6PFL2L3Residual'
p4116
g0
(g7
g2
Ntp4117
Rp4118
(dp4119
g11
(lp4120
g13
asg14
I00
sg15
I00
sg16
I52
sg17
g18
sg13
g0
(g19
g20
(lp4121
g2679
ag2525
ag1736
atp4122
Rp4123
(dp4124
g14
I00
sg29
I01
sg15
I00
sg30
I1
sbsg31
g4116
sg32
g33
sbsS'ak2PFL2L3'
p4125
g0
(g7
g2
Ntp4126
Rp4127
(dp4128
g11
(lp4129
g13
asg14
I00
sg15
I00
sg16
I52
sg17
g18
sg13
g0
(g19
g20
(lp4130
g2311
ag92
atp4131
Rp4132
(dp4133
g14
I00
sg29
I01
sg15
I00
sg30
I1
sbsg31
g4125
sg32
g33
sbsS'ak7PFL1FastjetL2L3Residual'
p4134
g0
(g7
g2
Ntp4135
Rp4136
(dp4137
g11
(lp4138
g13
asg14
I00
sg15
I00
sg16
I52
sg17
g18
sg13
g0
(g19
g20
(lp4139
g3661
ag879
ag880
ag949
atp4140
Rp4141
(dp4142
g14
I00
sg29
I01
sg15
I00
sg30
I1
sbsg31
g4134
sg32
g33
sbsS'ic5CaloL2L3L6'
p4143
g0
(g7
g2
Ntp4144
Rp4145
(dp4146
g11
(lp4147
g13
asg14
I00
sg15
I00
sg16
I746
sg17
g52
sg13
g0
(g19
g20
(lp4148
g849
ag850
ag227
atp4149
Rp4150
(dp4151
g14
I00
sg29
I01
sg15
I00
sg30
I1
sbsg31
g4143
sg32
g33
sbsg70
g0
(g7
g2
Ntp4152
Rp4153
(dp4154
g11
(lp4155
g40
ag41
asg14
I00
sg15
I00
sg40
g0
(g42
g2
Ntp4156
Rp4157
(dp4158
g14
I00
sg29
I01
sg46
g299
sg15
I01
sbsg41
g0
(g42
g2
Ntp4159
Rp4160
(dp4161
g14
I00
sg29
I01
sg46
g364
sg15
I00
sbsg17
g52
sg16
I108
sg31
g70
sg32
g105
sbsS'EcalLaserCorrectionService'
p4162
g0
(g7
g2
Ntp4163
Rp4164
(dp4165
g11
(lp4166
sg14
I00
sg15
I00
sg16
I52
sg17
g18
sg31
g4162
sg32
g4162
sbsg1562
g1564
sg2956
g0
(g7
g2
Ntp4167
Rp4168
(dp4169
g11
(lp4170
g232
ag233
ag234
ag40
ag41
asg14
I00
sg15
I00
sg40
g0
(g42
g2
Ntp4171
Rp4172
(dp4173
g14
I00
sg29
I01
sg46
g60
sg15
I00
sbsg232
g0
(g53
g2
Ntp4174
Rp4175
(dp4176
g14
I00
sg29
I01
sg15
I00
sg57
S'ak7PFJetsSoftElectronTagInfos'
p4177
sg61
g60
sg59
g60
sbsg17
g52
sg41
g0
(g42
g2
Ntp4178
Rp4179
(dp4180
g14
I00
sg29
I01
sg46
g245
sg15
I00
sbsg233
g0
(g53
g2
Ntp4181
Rp4182
(dp4183
g14
I00
sg29
I01
sg15
I00
sg57
S'ak7PFJetsSoftMuonTagInfos'
p4184
sg61
g60
sg59
g60
sbsg16
I190
sg234
g0
(g250
g2
Ntp4185
Rp4186
(dp4187
g14
I00
sg29
I01
sg46
I00
sg15
I00
sbsg31
g2956
sg32
g254
sbsg2178
g0
(g7
g2
Ntp4188
Rp4189
(dp4190
g11
(lp4191
g39
ag40
ag41
asg14
I00
sg15
I00
sg40
g0
(g42
g2
Ntp4192
Rp4193
(dp4194
g14
I00
sg29
I01
sg46
g1108
sg15
I01
sbsg41
g0
(g42
g2
Ntp4195
Rp4196
(dp4197
g14
I00
sg29
I01
sg46
g51
sg15
I00
sbsg17
g52
sg16
I81
sg39
g0
(g53
g2
Ntp4198
Rp4199
(dp4200
g14
I00
sg29
I01
sg15
I00
sg57
g91
sg59
g60
sg61
g60
sbsg31
g2178
sg32
g62
sbsS'kt4CaloL2L3L6'
p4201
g0
(g7
g2
Ntp4202
Rp4203
(dp4204
g11
(lp4205
g13
asg14
I00
sg15
I00
sg16
I742
sg17
g52
sg13
g0
(g19
g20
(lp4206
g1228
ag1229
ag2107
atp4207
Rp4208
(dp4209
g14
I00
sg29
I01
sg15
I00
sg30
I1
sbsg31
g4201
sg32
g33
sbsS'ak7PFL2L3'
p4210
g0
(g7
g2
Ntp4211
Rp4212
(dp4213
g11
(lp4214
g13
asg14
I00
sg15
I00
sg16
I52
sg17
g18
sg13
g0
(g19
g20
(lp4215
g879
ag880
atp4216
Rp4217
(dp4218
g14
I00
sg29
I01
sg15
I00
sg30
I1
sbsg31
g4210
sg32
g33
sbsS'ak1PFL1L2L3Residual'
p4219
g0
(g7
g2
Ntp4220
Rp4221
(dp4222
g11
(lp4223
g13
asg14
I00
sg15
I00
sg16
I52
sg17
g18
sg13
g0
(g19
g20
(lp4224
g1179
ag937
ag938
ag939
atp4225
Rp4226
(dp4227
g14
I00
sg29
I01
sg15
I00
sg30
I1
sbsg31
g4219
sg32
g33
sbsS'ak7JPTL1L2L3Residual'
p4228
g0
(g7
g2
Ntp4229
Rp4230
(dp4231
g11
(lp4232
g13
asg14
I00
sg15
I00
sg16
I52
sg17
g18
sg13
g0
(g19
g20
(lp4233
g2811
ag197
ag198
ag199
atp4234
Rp4235
(dp4236
g14
I00
sg29
I01
sg15
I00
sg30
I1
sbsg31
g4228
sg32
g33
sbsg1358
g1360
sg2619
g0
(g7
g2
Ntp4237
Rp4238
(dp4239
g11
(lp4240
g137
ag138
ag40
ag41
asg14
I00
sg15
I00
sg40
g0
(g42
g2
Ntp4241
Rp4242
(dp4243
g14
I00
sg29
I01
sg46
g1420
sg15
I01
sbsg137
g0
(g143
g2
Ntp4244
Rp4245
(dp4246
g14
I00
sg29
I01
sg46
I4
sg15
I00
sbsg17
g612
sg41
g0
(g42
g2
Ntp4247
Rp4248
(dp4249
g14
I00
sg29
I01
sg46
g150
sg15
I00
sbsg138
g0
(g42
g2
Ntp4250
Rp4251
(dp4252
g14
I00
sg29
I01
sg46
g154
sg15
I00
sbsg16
I30
sg31
g2619
sg32
g155
sbsS'ak4CaloL1FastL2L3L6'
p4253
g0
(g7
g2
Ntp4254
Rp4255
(dp4256
g11
(lp4257
g13
asg14
I00
sg15
I00
sg16
I250
sg17
g612
sg13
g0
(g19
g20
(lp4258
g310
ag209
ag210
aS'ak4CaloL6SLB'
p4259
atp4260
Rp4261
(dp4262
g14
I00
sg29
I01
sg15
I00
sg30
I1
sbsg31
g4253
sg32
g33
sbsg2936
g0
(g7
g2
Ntp4263
Rp4264
(dp4265
g11
(lp4266
g39
ag40
ag41
asg14
I00
sg15
I00
sg40
g0
(g42
g2
Ntp4267
Rp4268
(dp4269
g14
I00
sg29
I01
sg46
g839
sg15
I01
sbsg41
g0
(g42
g2
Ntp4270
Rp4271
(dp4272
g14
I00
sg29
I01
sg46
g51
sg15
I00
sbsg17
g52
sg16
I63
sg39
g0
(g53
g2
Ntp4273
Rp4274
(dp4275
g14
I00
sg29
I01
sg15
I00
sg57
g91
sg59
g60
sg61
g60
sbsg31
g2936
sg32
g62
sbsS'ak1PFL1FastjetL2L3Residual'
p4276
g0
(g7
g2
Ntp4277
Rp4278
(dp4279
g11
(lp4280
g13
asg14
I00
sg15
I00
sg16
I52
sg17
g18
sg13
g0
(g19
g20
(lp4281
g1947
ag937
ag938
ag939
atp4282
Rp4283
(dp4284
g14
I00
sg29
I01
sg15
I00
sg30
I1
sbsg31
g4276
sg32
g33
sbsS'ak7PFL2L3Residual'
p4285
g0
(g7
g2
Ntp4286
Rp4287
(dp4288
g11
(lp4289
g13
asg14
I00
sg15
I00
sg16
I52
sg17
g18
sg13
g0
(g19
g20
(lp4290
g879
ag880
ag949
atp4291
Rp4292
(dp4293
g14
I00
sg29
I01
sg15
I00
sg30
I1
sbsg31
g4285
sg32
g33
sbsg22
g0
(g7
g2
Ntp4294
Rp4295
(dp4296
g11
(lp4297
g1116
ag40
ag41
asg14
I00
sg15
I00
sg40
g0
(g42
g2
Ntp4298
Rp4299
(dp4300
g14
I00
sg29
I01
sg46
g1120
sg15
I00
sbsg41
g0
(g42
g2
Ntp4301
Rp4302
(dp4303
g14
I00
sg29
I01
sg46
g1124
sg15
I00
sbsg17
g18
sg16
I52
sg31
g22
sg32
g1125
sg1116
g0
(g42
g2
Ntp4304
Rp4305
(dp4306
g14
I00
sg29
I01
sg46
g132
sg15
I00
sbsbsg652
g0
(g7
g2
Ntp4307
Rp4308
(dp4309
g11
(lp4310
g39
ag40
ag41
asg14
I00
sg15
I00
sg40
g0
(g42
g2
Ntp4311
Rp4312
(dp4313
g14
I00
sg29
I01
sg46
g1030
sg15
I01
sbsg41
g0
(g42
g2
Ntp4314
Rp4315
(dp4316
g14
I00
sg29
I01
sg46
g51
sg15
I00
sbsg17
g52
sg16
I68
sg39
g0
(g53
g2
Ntp4317
Rp4318
(dp4319
g14
I00
sg29
I01
sg15
I00
sg57
g91
sg59
g60
sg61
g60
sbsg31
g652
sg32
g62
sbsS'ak7PFCHSL1FastjetL2L3Residual'
p4320
g0
(g7
g2
Ntp4321
Rp4322
(dp4323
g11
(lp4324
g13
asg14
I00
sg15
I00
sg16
I52
sg17
g18
sg13
g0
(g19
g20
(lp4325
g76
ag665
ag666
ag2715
atp4326
Rp4327
(dp4328
g14
I00
sg29
I01
sg15
I00
sg30
I1
sbsg31
g4320
sg32
g33
sbsg2311
g0
(g7
g2
Ntp4329
Rp4330
(dp4331
g11
(lp4332
g40
ag41
asg14
I00
sg15
I00
sg40
g0
(g42
g2
Ntp4333
Rp4334
(dp4335
g14
I00
sg29
I01
sg46
g100
sg15
I01
sbsg41
g0
(g42
g2
Ntp4336
Rp4337
(dp4338
g14
I00
sg29
I01
sg46
g364
sg15
I00
sbsg17
g52
sg16
I93
sg31
g2311
sg32
g105
sbsg126
g0
(g7
g2
Ntp4339
Rp4340
(dp4341
g11
(lp4342
g40
ag41
asg14
I00
sg15
I00
sg40
g0
(g42
g2
Ntp4343
Rp4344
(dp4345
g14
I00
sg29
I01
sg46
g1344
sg15
I01
sbsg41
g0
(g42
g2
Ntp4346
Rp4347
(dp4348
g14
I00
sg29
I01
sg46
g364
sg15
I00
sbsg17
g52
sg16
I103
sg31
g126
sg32
g105
sbsS'ic5CaloL1FastL2L3L6'
p4349
g0
(g7
g2
Ntp4350
Rp4351
(dp4352
g11
(lp4353
g13
asg14
I00
sg15
I00
sg16
I766
sg17
g52
sg13
g0
(g19
g20
(lp4354
g1097
ag849
ag850
ag227
atp4355
Rp4356
(dp4357
g14
I00
sg29
I01
sg15
I00
sg30
I1
sbsg31
g4349
sg32
g33
sbsS'hcal_db_producer'
p4358
g0
(g7
g2
Ntp4359
Rp4360
(dp4361
g11
(lp4362
S'file'
p4363
aS'dump'
p4364
asg14
I00
sg15
I00
sg4364
g0
(g19
g20
(lp4365
g60
atp4366
Rp4367
(dp4368
g14
I00
sg29
I00
sg15
I00
sg30
I1
sbsg16
I52
sg17
g18
sg4363
g0
(g42
g2
Ntp4369
Rp4370
(dp4371
g14
I00
sg29
I00
sg46
g60
sg15
I00
sbsg31
g4358
sg32
S'HcalDbProducer'
p4372
sbsg1399
g1401
sS'ak2PFL1FastjetL2L3Residual'
p4373
g0
(g7
g2
Ntp4374
Rp4375
(dp4376
g11
(lp4377
g13
asg14
I00
sg15
I00
sg16
I52
sg17
g18
sg13
g0
(g19
g20
(lp4378
g2344
ag2311
ag92
ag2312
atp4379
Rp4380
(dp4381
g14
I00
sg29
I01
sg15
I00
sg30
I1
sbsg31
g4373
sg32
g33
sbsg1215
g1414
sS'ak6PFL1L2L3Residual'
p4382
g0
(g7
g2
Ntp4383
Rp4384
(dp4385
g11
(lp4386
g13
asg14
I00
sg15
I00
sg16
I52
sg17
g18
sg13
g0
(g19
g20
(lp4387
g3084
ag2679
ag2525
ag1736
atp4388
Rp4389
(dp4390
g14
I00
sg29
I01
sg15
I00
sg30
I1
sbsg31
g4382
sg32
g33
sbsS'ic5PFL2L3Residual'
p4391
g0
(g7
g2
Ntp4392
Rp4393
(dp4394
g11
(lp4395
g13
asg14
I00
sg15
I00
sg16
I52
sg17
g18
sg13
g0
(g19
g20
(lp4396
g262
ag263
ag264
atp4397
Rp4398
(dp4399
g14
I00
sg29
I01
sg15
I00
sg30
I1
sbsg31
g4391
sg32
g33
sbsS'ak1PFL2L3'
p4400
g0
(g7
g2
Ntp4401
Rp4402
(dp4403
g11
(lp4404
g13
asg14
I00
sg15
I00
sg16
I52
sg17
g18
sg13
g0
(g19
g20
(lp4405
g937
ag938
atp4406
Rp4407
(dp4408
g14
I00
sg29
I01
sg15
I00
sg30
I1
sbsg31
g4400
sg32
g33
sbsg1424
g1426
sg263
g1435
sg1444
g1446
sg1453
g1455
sS'ak4CaloL2L3L6'
p4409
g0
(g7
g2
Ntp4410
Rp4411
(dp4412
g11
(lp4413
g13
asg14
I00
sg15
I00
sg16
I244
sg17
g612
sg13
g0
(g19
g20
(lp4414
g209
ag210
ag4259
atp4415
Rp4416
(dp4417
g14
I00
sg29
I01
sg15
I00
sg30
I1
sbsg31
g4409
sg32
g33
sbsS'ak4JPTL1L2L3'
p4418
g0
(g7
g2
Ntp4419
Rp4420
(dp4421
g11
(lp4422
g13
asg14
I00
sg15
I00
sg16
I52
sg17
g18
sg13
g0
(g19
g20
(lp4423
g22
ag23
ag24
atp4424
Rp4425
(dp4426
g14
I00
sg29
I01
sg15
I00
sg30
I1
sbsg31
g4418
sg32
g33
sbsg1018
g0
(g7
g2
Ntp4427
Rp4428
(dp4429
g11
(lp4430
g40
ag41
asg14
I00
sg15
I00
sg40
g0
(g42
g2
Ntp4431
Rp4432
(dp4433
g14
I00
sg29
I01
sg46
g47
sg15
I01
sbsg41
g0
(g42
g2
Ntp4434
Rp4435
(dp4436
g14
I00
sg29
I01
sg46
g364
sg15
I00
sbsg17
g52
sg16
I85
sg31
g1018
sg32
g105
sbsS'ak5PFCHSL2L3'
p4437
g0
(g7
g2
Ntp4438
Rp4439
(dp4440
g11
(lp4441
g13
asg14
I00
sg15
I00
sg16
I52
sg17
g18
sg13
g0
(g19
g20
(lp4442
g184
ag185
atp4443
Rp4444
(dp4445
g14
I00
sg29
I01
sg15
I00
sg30
I1
sbsg31
g4437
sg32
g33
sbsg613
g615
sg937
g1572
sg939
g0
(g7
g2
Ntp4446
Rp4447
(dp4448
g11
(lp4449
g40
ag41
asg14
I00
sg15
I00
sg40
g0
(g42
g2
Ntp4450
Rp4451
(dp4452
g14
I00
sg29
I01
sg46
g1187
sg15
I01
sbsg41
g0
(g42
g2
Ntp4453
Rp4454
(dp4455
g14
I00
sg29
I01
sg46
g303
sg15
I00
sbsg17
g52
sg16
I147
sg31
g939
sg32
g105
sbsS'ak5PFCHSL1FastjetL2L3Residual'
p4456
g0
(g7
g2
Ntp4457
Rp4458
(dp4459
g11
(lp4460
g13
asg14
I00
sg15
I00
sg16
I52
sg17
g18
sg13
g0
(g19
g20
(lp4461
g3916
ag184
ag185
ag186
atp4462
Rp4463
(dp4464
g14
I00
sg29
I01
sg15
I00
sg30
I1
sbsg31
g4456
sg32
g33
sbsS'kt4CaloL1L2L3Residual'
p4465
g0
(g7
g2
Ntp4466
Rp4467
(dp4468
g11
(lp4469
g13
asg14
I00
sg15
I00
sg16
I52
sg17
g18
sg13
g0
(g19
g20
(lp4470
g1986
ag1228
ag1229
ag1230
atp4471
Rp4472
(dp4473
g14
I00
sg29
I01
sg15
I00
sg30
I1
sbsg31
g4465
sg32
g33
sbsS'ic5PFL2L3'
p4474
g0
(g7
g2
Ntp4475
Rp4476
(dp4477
g11
(lp4478
g13
asg14
I00
sg15
I00
sg16
I52
sg17
g18
sg13
g0
(g19
g20
(lp4479
g262
ag263
atp4480
Rp4481
(dp4482
g14
I00
sg29
I01
sg15
I00
sg30
I1
sbsg31
g4474
sg32
g33
sbsg4259
g0
(g7
g2
Ntp4483
Rp4484
(dp4485
g11
(lp4486
g232
ag233
ag234
ag40
ag41
asg14
I00
sg15
I00
sg40
g0
(g42
g2
Ntp4487
Rp4488
(dp4489
g14
I00
sg29
I01
sg46
g60
sg15
I00
sbsg232
g0
(g53
g2
Ntp4490
Rp4491
(dp4492
g14
I00
sg29
I01
sg15
I00
sg57
S'ak4CaloJetsSoftElectronTagInfos'
p4493
sg61
g60
sg59
g60
sbsg17
g18
sg41
g0
(g42
g2
Ntp4494
Rp4495
(dp4496
g14
I00
sg29
I01
sg46
g245
sg15
I00
sbsg233
g0
(g53
g2
Ntp4497
Rp4498
(dp4499
g14
I00
sg29
I01
sg15
I00
sg57
S'ak4CaloJetsSoftMuonTagInfos'
p4500
sg61
g60
sg59
g60
sbsg16
I52
sg234
g0
(g250
g2
Ntp4501
Rp4502
(dp4503
g14
I00
sg29
I01
sg46
I01
sg15
I00
sbsg31
g4259
sg32
g254
sbsg665
g1715
sS'ak3PFCHSL1L2L3Residual'
p4504
g0
(g7
g2
Ntp4505
Rp4506
(dp4507
g11
(lp4508
g13
asg14
I00
sg15
I00
sg16
I52
sg17
g18
sg13
g0
(g19
g20
(lp4509
g1311
ag806
ag807
ag808
atp4510
Rp4511
(dp4512
g14
I00
sg29
I01
sg15
I00
sg30
I1
sbsg31
g4504
sg32
g33
sbsg2226
g0
(g7
g2
Ntp4513
Rp4514
(dp4515
g11
(lp4516
g39
ag40
ag41
asg14
I00
sg15
I00
sg40
g0
(g42
g2
Ntp4517
Rp4518
(dp4519
g14
I00
sg29
I01
sg46
g276
sg15
I01
sbsg41
g0
(g42
g2
Ntp4520
Rp4521
(dp4522
g14
I00
sg29
I01
sg46
g51
sg15
I00
sbsg17
g52
sg16
I51
sg39
g0
(g53
g2
Ntp4523
Rp4524
(dp4525
g14
I00
sg29
I01
sg15
I00
sg57
g58
sg59
g60
sg61
g60
sbsg31
g2226
sg32
g62
sbsS'ak6PFCHSL2L3Residual'
p4526
g0
(g7
g2
Ntp4527
Rp4528
(dp4529
g11
(lp4530
g13
asg14
I00
sg15
I00
sg16
I52
sg17
g18
sg13
g0
(g19
g20
(lp4531
g287
ag288
ag2557
atp4532
Rp4533
(dp4534
g14
I00
sg29
I01
sg15
I00
sg30
I1
sbsg31
g4526
sg32
g33
sbsS'ak3PFCHSL1FastjetL2L3Residual'
p4535
g0
(g7
g2
Ntp4536
Rp4537
(dp4538
g11
(lp4539
g13
asg14
I00
sg15
I00
sg16
I52
sg17
g18
sg13
g0
(g19
g20
(lp4540
g1255
ag806
ag807
ag808
atp4541
Rp4542
(dp4543
g14
I00
sg29
I01
sg15
I00
sg30
I1
sbsg31
g4535
sg32
g33
sbsg209
g0
(g7
g2
Ntp4544
Rp4545
(dp4546
g11
(lp4547
g40
ag41
asg14
I00
sg15
I00
sg40
g0
(g42
g2
Ntp4548
Rp4549
(dp4550
g14
I00
sg29
I01
sg46
g142
sg15
I00
sbsg41
g0
(g42
g2
Ntp4551
Rp4552
(dp4553
g14
I00
sg29
I01
sg46
g364
sg15
I00
sbsg17
g18
sg16
I52
sg31
g209
sg32
g105
sbsg1287
g0
(g7
g2
Ntp4554
Rp4555
(dp4556
g11
(lp4557
g137
ag138
ag40
ag41
asg14
I00
sg15
I00
sg40
g0
(g42
g2
Ntp4558
Rp4559
(dp4560
g14
I00
sg29
I01
sg46
g1030
sg15
I01
sbsg137
g0
(g143
g2
Ntp4561
Rp4562
(dp4563
g14
I00
sg29
I01
sg46
I4
sg15
I00
sbsg17
g52
sg41
g0
(g42
g2
Ntp4564
Rp4565
(dp4566
g14
I00
sg29
I01
sg46
g150
sg15
I00
sbsg138
g0
(g42
g2
Ntp4567
Rp4568
(dp4569
g14
I00
sg29
I01
sg46
g154
sg15
I00
sbsg16
I24
sg31
g1287
sg32
g155
sbsg925
g0
(g7
g2
Ntp4570
Rp4571
(dp4572
g11
(lp4573
g40
ag41
asg14
I00
sg15
I00
sg40
g0
(g42
g2
Ntp4574
Rp4575
(dp4576
g14
I00
sg29
I01
sg46
g2738
sg15
I01
sbsg41
g0
(g42
g2
Ntp4577
Rp4578
(dp4579
g14
I00
sg29
I01
sg46
g104
sg15
I00
sbsg17
g52
sg16
I133
sg31
g925
sg32
g105
sbsg666
g0
(g7
g2
Ntp4580
Rp4581
(dp4582
g11
(lp4583
g40
ag41
asg14
I00
sg15
I00
sg40
g0
(g42
g2
Ntp4584
Rp4585
(dp4586
g14
I00
sg29
I01
sg46
g84
sg15
I01
sbsg41
g0
(g42
g2
Ntp4587
Rp4588
(dp4589
g14
I00
sg29
I01
sg46
g104
sg15
I00
sbsg17
g52
sg16
I130
sg31
g666
sg32
g105
sbsg115
g0
(g7
g2
Ntp4590
Rp4591
(dp4592
g11
(lp4593
g40
ag41
asg14
I00
sg15
I00
sg40
g0
(g42
g2
Ntp4594
Rp4595
(dp4596
g14
I00
sg29
I01
sg46
g1108
sg15
I01
sbsg41
g0
(g42
g2
Ntp4597
Rp4598
(dp4599
g14
I00
sg29
I01
sg46
g303
sg15
I00
sbsg17
g52
sg16
I166
sg31
g115
sg32
g105
sbsg807
g0
(g7
g2
Ntp4600
Rp4601
(dp4602
g11
(lp4603
g40
ag41
asg14
I00
sg15
I00
sg40
g0
(g42
g2
Ntp4604
Rp4605
(dp4606
g14
I00
sg29
I01
sg46
g1263
sg15
I01
sbsg41
g0
(g42
g2
Ntp4607
Rp4608
(dp4609
g14
I00
sg29
I01
sg46
g104
sg15
I00
sbsg17
g52
sg16
I124
sg31
g807
sg32
g105
sbsS'ak9PFL1L2L3Residual'
p4610
g0
(g7
g2
Ntp4611
Rp4612
(dp4613
g11
(lp4614
g13
asg14
I00
sg15
I00
sg16
I52
sg17
g18
sg13
g0
(g19
g20
(lp4615
g2730
ag924
ag925
ag926
atp4616
Rp4617
(dp4618
g14
I00
sg29
I01
sg15
I00
sg30
I1
sbsg31
g4610
sg32
g33
sbssg2101
g2103
sg807
g4601
sg1775
g1777
sg1823
g1825
sg1860
g1862
sg1870
g1872
sg1879
g1881
sg1907
g1909
sg1927
g1929
sg3084
g3086
sg127
g1971
sg2403
g3612
sg1990
g1992
sg211
g2082
sg210
g2092
sg1758
g1760
sg2136
g2138
sg115
g4591
sg25
g2295
sg2335
g2337
sg2397
g2399
sg2312
g2408
sg666
g4581
sg808
g2436
sg1885
g2446
sg2470
g2472
sg3489
g3491
sg3521
g3523
sg2504
g2506
sg2525
g2527
sg2536
g2538
sg2550
g2552
sS'HFRecalParameterBlock'
p4619
g0
(g424
g2
Ntp4620
Rp4621
(dp4622
g14
I00
sg29
I01
sg15
I00
sS'HFdepthTwoParameterA'
p4623
g0
(cFWCore.ParameterSet.Types
vdouble
p4624
g20
(lp4625
F0.002861
aF0.004168
aF0.0064
aF0.008388
aF0.011601
aF0.014425
aF0.018633
aF0.023232
aF0.028274
aF0.035447
aF0.051579
aF0.086593
atp4626
Rp4627
(dp4628
g14
I00
sg29
I01
sg15
I00
sbsS'HFdepthOneParameterA'
p4629
g0
(g4624
g20
(lp4630
F0.004123
aF0.00602
aF0.008201
aF0.010489
aF0.013379
aF0.016997
aF0.021464
aF0.027371
aF0.034195
aF0.044807
aF0.058939
aF0.125497
atp4631
Rp4632
(dp4633
g14
I00
sg29
I01
sg15
I00
sbsS'HFdepthOneParameterB'
p4634
g0
(g4624
g20
(lp4635
F-4e-06
aF-2e-06
aF0.0
aF4e-06
aF1.5e-05
aF2.6e-05
aF6.3e-05
aF8.4e-05
aF0.00016
aF0.000107
aF0.000425
aF0.000209
atp4636
Rp4637
(dp4638
g14
I00
sg29
I01
sg15
I00
sbsS'HFdepthTwoParameterB'
p4639
g0
(g4624
g20
(lp4640
F-2e-06
aF-0.0
aF-7e-06
aF-6e-06
aF-2e-06
aF1e-06
aF1.9e-05
aF3.1e-05
aF6.7e-05
aF1.2e-05
aF0.000157
aF-3e-06
atp4641
Rp4642
(dp4643
g14
I00
sg29
I01
sg15
I00
sbsg11
(lp4644
g4629
ag4634
ag4639
ag4623
asg31
g4619
sbsg1430
g2592
sg2613
g2615
sg2652
g2654
sg264
g2664
sg2510
g3209
sg2673
g2675
sg1730
g3017
sg209
g4545
sg2557
g2720
sg949
g2749
sS'_Process__vpsets'
p4645
(dp4646
sg1986
g2279
sg2796
g2798
sg2715
g2835
sS'patJetCorrections'
p4647
g0
(g1582
g2
Ntp4648
Rp4649
(dp4650
g14
I00
sg321
Nsg31
g4647
sg15
I00
sg578
g0
(g579
g2
Ntp4651
Rp4652
(dp4653
g583
(dp4654
g965
(lp4655
g965
a(lp4656
Nag4655
ag4655
aag4656
assg585
g4656
sbsbsg2930
g2932
sS'_Process__psets'
p4657
(dp4658
S'maxEvents'
p4659
g0
(g424
g2
Ntp4660
Rp4661
(dp4662
g14
I00
sg29
I00
sg15
I00
sg11
(lp4663
S'input'
p4664
asg31
g4659
sg4664
g0
(g143
g2
Ntp4665
Rp4666
(dp4667
g14
I00
sg29
I00
sg46
I50
sg15
I00
sbsbsg4619
g4621
ssg3114
g3116
sg2226
g4514
sg3155
g3157
sg1019
g3222
sg2220
g2222
sg655
g3259
sg2730
g2732
sg3324
g3326
sg24
g3370
sS'PoolSource'
p4668
g0
(cFWCore.ParameterSet.Modules
Source
p4669
g2
Ntp4670
Rp4671
(dp4672
g11
(lp4673
S'fileNames'
p4674
asg14
I00
sg15
I00
sg16
I192
sg17
g18
sg4674
g0
(g19
g20
(lp4675
S'/store/data/Run2016G/SingleMuon/MINIAOD/23Sep2016-v1/1110000/A2C0F697-B19C-E611-A4D8-F04DA275BFF2.root'
p4676
atp4677
Rp4678
(dp4679
g14
I00
sg29
I00
sg15
I00
sg30
I1
sbsg32
g4668
sbsg2511
g3407
sS'_Process__name'
p4680
S'myprocess'
p4681
sg3480
g3482
sg288
g3499
sg2956
g4168
sg3602
g3604
sg3630
g3632
sg1933
g3640
sg2860
g2862
sg3661
g3663
sg2030
g2032
sg184
g3715
sg1996
g3433
sg3740
g3742
sg3769
g3771
sg4504
g4506
sg3839
g3841
sg362
g330
sg310
g3904
sg3916
g3918
sg721
g3960
sg4097
g4099
sg2936
g4264
sS'_cloneToObjectDict'
p4682
(dp4683
I140454446097552
g4467
sI140454446057488
g3977
sI140454446462672
g3612
sI140454446155792
g2165
sI140454445960208
g3894
sI140454445957712
g1572
sI140454446099600
g2203
sI140454446315600
g2295
sI140454446317008
g205
sI140454446059024
g3523
sI140454446464720
g4428
sI140454446010128
g2720
sI140454446009360
g2436
sI140454446058832
g2606
sI140454446096464
g802
sI140454446313872
g3985
sI140454446330512
g2056
sI140454446154704
g2370
sI140454446097488
g3353
sI140454446437648
g3279
sI140454446098576
g1169
sI140454446056912
g1160
sI140454446008016
g1851
sI140454446675856
g3626
sI140454446155728
g169
sI140454446098512
g717
sI140454446643600
g3551
sI140454446057936
g1726
sI140454446414736
g1760
sI140454446099536
g1075
sI140454446463184
g3209
sI140454446316944
g1564
sI140454446058960
g2769
sI140454446333648
g1313
sI140454445961168
g3531
sI140454445957904
g3165
sI140454446098768
g589
sI140454446436560
g2915
sI140454446007632
g637
sI140454446330448
g1211
sI140454446154640
g2174
sI140454446097424
g4393
sI140454445959440
g2777
sI140454446032592
g4591
sI140454445959056
g3715
sI140454446098448
g2711
sI140454446057872
g1084
sI140454446008976
g3849
sI140454446099472
g1909
sI140454445986192
g780
sI140454446304400
g3072
sI140454446520656
g4621
sI140454446058896
g2807
sI140454446437776
g2902
sI140454446055760
g886
sI140454446330384
g2428
sI140454446006864
g4107
sI140454446154576
g2463
sI140454446031824
g3407
sI140454445958096
g4330
sI140454446099792
g3326
sI140454446098832
g65
sI140454446331408
g2845
sI140454446675728
g3335
sI140454446155600
g2952
sI140454446098384
g945
sI140454446154512
g1426
sI140454445988112
g4601
sI140454446057808
g1330
sI140454446520720
g4360
sI140454445960016
g4340
sI140454446099408
g2032
sI140454446439568
g3640
sI140454446316816
g2138
sI140454445988304
g1349
sI140454446055504
g615
sI140454446100432
g4537
sI140454446313680
g3269
sI140454445986000
g2211
sI140454446461392
g2538
sI140454446412496
g3086
sI140454446413136
g857
sI140454446058000
g1872
sI140454446331344
g2279
sI140454446007824
g1918
sI140454446032784
g2664
sI140454445958288
g1199
sI140454446099984
g2222
sI140454446057744
g3841
sI140454446463440
g766
sI140454446058576
g1093
sI140454446099344
g1816
sI140454445989072
g2624
sI140454446058768
g3381
sI140454446438992
g1949
sI140454446464464
g2870
sI140454445960976
g4153
sI140454446155536
g4351
sI140454446100368
g3116
sI140454446330256
g3251
sI140454446154448
g2563
sI140454446314640
g3370
sI140454445989264
g4581
sI140454446056656
g1777
sI140454446642000
g1360
sI140454446099088
g4230
sI140454446644496
g3677
sI140454446413456
g749
sI140454445958864
g1024
sI140454446057680
g661
sI140454446008784
g2408
sI140454446099280
g2184
sI140454445958480
g2816
sI140454446316688
g3455
sI140454446058704
g3491
sI140454446463696
g2592
sI140454446333328
g2446
sI140454446677648
g1455
sI140454446157520
g1591
sI140454446100304
g1929
sI140454446330320
g3942
sI140454446305232
g602
sI140454446032208
g293
sI140454446330192
g3654
sI140454446006672
g791
sI140454446154384
g2506
sI140454446097168
g3390
sI140454446056592
g3201
sI140454446519504
g4164
sI140454446058256
g4476
sI140454446155408
g2103
sI140454446098192
g1843
sI140454446303120
g3047
sI140454445987920
g2787
sI140454446057616
g4212
sI140454446414416
g2732
sI140454445959824
g1715
sI140454446099216
g3886
sI140454446304144
g3904
sI140454446058640
g875
sI140454446097232
g4099
sI140454446009744
g3760
sI140454446100240
g4375
sI140454446034064
g229
sI140454446305168
g1414
sI140454446332368
g3799
sI140454446330128
g2884
sI140454446154320
g3037
sI140454446097104
g3135
sI140454446155088
g3604
sI140454446056528
g814
sI140454446097296
g1054
sI140454445749648
g383
sI140454446155344
g1369
sI140454446098128
g1283
sI140454446303056
g2231
sI140454446438288
g2041
sI140454446057552
g283
sI140454446676496
g2248
sI140454446099152
g3473
sI140454445986960
g3931
sI140454446439312
g2346
sI140454445988880
g3499
sI140454445989456
g1971
sI140454446316752
g3742
sI140454446314448
g2359
sI140454446415376
g3417
sI140454445960784
g2021
sI140454446100176
g2932
sI140454446305104
g4545
sI140454446098256
g4384
sI140454446440336
g4308
sI140454446461136
g3918
sI140454446674384
g3996
sI140454446154256
g2399
sI140454446330064
g9
sI140454446097040
g920
sI140454445986768
g270
sI140454446154768
g192
sI140454446155280
g1131
sI140454446008592
g2002
sI140454446330576
g727
sI140454446058512
g1807
sI140454446316624
g3433
sI140454446100112
g4278
sI140454445987152
g2643
sI140454446056976
g4402
sI140454446317520
g3816
sI140454446330000
g2380
sI140454446006480
g3017
sI140454445748496
g330
sI140454446412176
g1825
sI140454446154192
g121
sI140454446096976
g2065
sI140454446314384
g2317
sI140454446032016
g3875
sI140454446155216
g2760
sI140454446096592
g180
sI140454446098000
g1881
sI140454445987728
g3124
sI140454446057424
g4439
sI140454446332048
g1181
sI140454445959632
g1140
sI140454446099024
g257
sI140454446155472
g737
sI140454446058448
g1982
sI140454446009552
g3259
sI140454446462160
g78
sI140454446100048
g3482
sI140454446464208
g4189
sI140454446317456
g4420
sI140454446059472
g2472
sI140454446329936
g2798
sI140454446674256
g3780
sI140454446154128
g4322
sI140454446096912
g2862
sI140454446314320
g2092
sI140454445989840
g4571
sI140454446330960
g2694
sI140454446007440
g1435
sI140454446155024
g4145
sI140454446155152
g3464
sI140454446097936
g2074
sI140454446315344
g2684
sI140454446057360
g1151
sI140454446096784
g4287
sI140454446098960
g108
sI140454446303888
g4295
sI140454445988688
g2527
sI140454446058384
g1013
sI140454446333008
g1892
sI140454445751504
g319
sI140454446437712
g36
sI140454445960592
g908
sI140454446034448
g4168
sI140454446304912
g1113
sI140454446155664
g2337
sI140454446317392
g1862
sI140454446098320
g2552
sI140454446059408
g1796
sI140454446154064
g4136
sI140454446096848
g3064
sI140454445986576
g1271
sI140454446097808
g2654
sI140454446031440
g1302
sI140454446097872
g2306
sI140454446438032
g4514
sI140454446315280
g2082
sI140454446057296
g2481
sI140454446317328
g2615
sI140454446008400
g4447
sI140454446098896
g2635
sI140454446439056
g4264
sI140454446058320
g3233
sI140454446462416
g3102
sI140454446099920
g1223
sI140454446440080
g1257
sI140454445989648
g217
sI140454446059344
g3242
sI140454446606928
g0
(cFWCore.ParameterSet.Modules
ESSource
p4684
g2
Ntp4685
Rp4686
(dp4687
g14
I00
sg16
I155
sS'useHEUpgrade'
p4688
g0
(g250
g2
Ntp4689
Rp4690
(dp4691
g14
I00
sg29
I01
sg46
I00
sg15
I00
sbsS'HBRecalibration'
p4692
g0
(g250
g2
Ntp4693
Rp4694
(dp4695
g14
I00
sg29
I01
sg46
I00
sg15
I00
sbsS'useLayer0Weight'
p4696
g0
(g250
g2
Ntp4697
Rp4698
(dp4699
g14
I00
sg29
I01
sg46
I00
sg15
I00
sbsS'HEmeanenergies'
p4700
g0
(cFWCore.ParameterSet.Types
FileInPath
p4701
g2
Ntp4702
Rp4703
(dp4704
g14
I00
sg29
I01
sg46
S'CalibCalorimetry/HcalPlugins/data/meanenergiesHE.txt'
p4705
sg15
I00
sbsg4619
g4621
sS'heUpgrade'
p4706
g0
(g424
g2
Ntp4707
Rp4708
(dp4709
g14
I00
sg29
I01
sS'qieType'
p4710
g0
(g143
g2
Ntp4711
Rp4712
(dp4713
g14
I00
sg29
I01
sg46
I2
sg15
I00
sbsg15
I00
sS'pedestalWidth'
p4714
g0
(g489
g2
Ntp4715
Rp4716
(dp4717
g14
I00
sg29
I01
sg46
F1.5
sg15
I00
sbsS'recoShape'
p4718
g0
(g143
g2
Ntp4719
Rp4720
(dp4721
g14
I00
sg29
I01
sg46
I203
sg15
I00
sbsS'darkCurrent'
p4722
g0
(g4624
g20
(lp4723
F0.01
aF0.015
atp4724
Rp4725
(dp4726
g14
I00
sg29
I01
sg15
I00
sbsS'qieOffset'
p4727
g0
(g4624
g20
(lp4728
F0.0
aF0.0
aF0.0
aF0.0
atp4729
Rp4730
(dp4731
g14
I00
sg29
I01
sg15
I00
sbsS'qieSlope'
p4732
g0
(g4624
g20
(lp4733
F0.05376
aF0.05376
aF0.05376
aF0.05376
atp4734
Rp4735
(dp4736
g14
I00
sg29
I01
sg15
I00
sbsS'radiationDamage'
p4737
g0
(g424
g2
Ntp4738
Rp4739
(dp4740
g14
I00
sg29
I01
sS'temperatureNew'
p4741
g0
(g489
g2
Ntp4742
Rp4743
(dp4744
g14
I00
sg29
I01
sg46
I5
sg15
I00
sbsg15
I00
sS'depVsNeutrons'
p4745
g0
(g4624
g20
(lp4746
F5.69e-11
aF7.9e-11
atp4747
Rp4748
(dp4749
g14
I00
sg29
I01
sg15
I00
sbsS'temperatureBase'
p4750
g0
(g489
g2
Ntp4751
Rp4752
(dp4753
g14
I00
sg29
I01
sg46
I20
sg15
I00
sbsS'depVsTemp'
p4754
g0
(g489
g2
Ntp4755
Rp4756
(dp4757
g14
I00
sg29
I01
sg46
F0.0631
sg15
I00
sbsS'intlumiOffset'
p4758
g0
(g489
g2
Ntp4759
Rp4760
(dp4761
g14
I00
sg29
I01
sg46
I75
sg15
I00
sbsg11
(lp4762
g4741
ag4745
ag4750
ag4754
ag4758
aS'intlumiToNeutrons'
p4763
asg4763
g0
(g489
g2
Ntp4764
Rp4765
(dp4766
g14
I00
sg29
I01
sg46
F29200000.0
sg15
I00
sbsbsS'doRadiationDamage'
p4767
g0
(g250
g2
Ntp4768
Rp4769
(dp4770
g14
I00
sg29
I01
sg46
I01
sg15
I00
sbsg11
(lp4771
g4710
ag4714
ag4718
aS'photoelectronsToAnalog'
p4772
ag4727
ag4732
ag4737
ag4767
ag4722
aS'pedestal'
p4773
aS'mcShape'
p4774
aS'gainWidth'
p4775
aS'gain'
p4776
asg4772
g0
(g489
g2
Ntp4777
Rp4778
(dp4779
g14
I00
sg29
I01
sg46
F44.0
sg15
I00
sbsg4773
g0
(g489
g2
Ntp4780
Rp4781
(dp4782
g14
I00
sg29
I01
sg46
F17.3
sg15
I00
sbsg4774
g0
(g143
g2
Ntp4783
Rp4784
(dp4785
g14
I00
sg29
I01
sg46
I203
sg15
I00
sbsg4775
g0
(g4624
g20
(lp4786
I0
atp4787
Rp4788
(dp4789
g14
I00
sg29
I01
sg15
I00
sbsg4776
g0
(g4624
g20
(lp4790
F0.0004393673110720562
atp4791
Rp4792
(dp4793
g14
I00
sg29
I01
sg15
I00
sbsbsg11
(lp4794
S'toGet'
p4795
ag4692
ag4696
ag4700
ag4619
ag4706
aS'useHOUpgrade'
p4796
aS'killHE'
p4797
aS'useHBUpgrade'
p4798
aS'hbUpgrade'
p4799
aS'testHEPlan1'
p4800
aS'iLumi'
p4801
aS'testHFQIE10'
p4802
aS'HBmeanenergies'
p4803
ag4688
aS'GainWidthsForTrigPrims'
p4804
aS'HBreCalibCutoff'
p4805
aS'HFRecalibration'
p4806
aS'ho'
p4807
aS'hb'
p4808
aS'hf'
p4809
aS'he'
p4810
aS'HERecalibration'
p4811
aS'useHFUpgrade'
p4812
aS'HEreCalibCutoff'
p4813
aS'SiPMCharacteristics'
p4814
aS'hfUpgrade'
p4815
asg17
S'/cvmfs/cms.cern.ch/slc6_amd64_gcc630/cms/cmssw/CMSSW_9_4_2/python/CalibCalorimetry/HcalPlugins/Hcal_Conditions_forGlobalTag_cff.py'
p4816
sg4796
g0
(g250
g2
Ntp4817
Rp4818
(dp4819
g14
I00
sg29
I01
sg46
I01
sg15
I00
sbsg4797
g0
(g250
g2
Ntp4820
Rp4821
(dp4822
g14
I00
sg29
I01
sg46
I00
sg15
I00
sbsg4798
g0
(g250
g2
Ntp4823
Rp4824
(dp4825
g14
I00
sg29
I01
sg46
I00
sg15
I00
sbsg4799
g0
(g424
g2
Ntp4826
Rp4827
(dp4828
g14
I00
sg29
I01
sg4710
g0
(g143
g2
Ntp4829
Rp4830
(dp4831
g14
I00
sg29
I01
sg46
I2
sg15
I00
sbsg15
I00
sg4714
g0
(g489
g2
Ntp4832
Rp4833
(dp4834
g14
I00
sg29
I01
sg46
F1.5
sg15
I00
sbsg4718
g0
(g143
g2
Ntp4835
Rp4836
(dp4837
g14
I00
sg29
I01
sg46
I203
sg15
I00
sbsg4722
g0
(g4624
g20
(lp4838
F0.01
aF0.015
atp4839
Rp4840
(dp4841
g14
I00
sg29
I01
sg15
I00
sbsg4727
g0
(g4624
g20
(lp4842
F0.0
aF0.0
aF0.0
aF0.0
atp4843
Rp4844
(dp4845
g14
I00
sg29
I01
sg15
I00
sbsg4732
g0
(g4624
g20
(lp4846
F0.05376
aF0.05376
aF0.05376
aF0.05376
atp4847
Rp4848
(dp4849
g14
I00
sg29
I01
sg15
I00
sbsg4737
g0
(g424
g2
Ntp4850
Rp4851
(dp4852
g14
I00
sg29
I01
sg4741
g0
(g489
g2
Ntp4853
Rp4854
(dp4855
g14
I00
sg29
I01
sg46
I-5
sg15
I00
sbsg15
I00
sg4745
g0
(g4624
g20
(lp4856
F5.69e-11
aF7.9e-11
atp4857
Rp4858
(dp4859
g14
I00
sg29
I01
sg15
I00
sbsg4750
g0
(g489
g2
Ntp4860
Rp4861
(dp4862
g14
I00
sg29
I01
sg46
I20
sg15
I00
sbsg4754
g0
(g489
g2
Ntp4863
Rp4864
(dp4865
g14
I00
sg29
I01
sg46
F0.0631
sg15
I00
sbsg4758
g0
(g489
g2
Ntp4866
Rp4867
(dp4868
g14
I00
sg29
I01
sg46
I150
sg15
I00
sbsg11
(lp4869
g4741
ag4745
ag4750
ag4754
ag4758
ag4763
asg4763
g0
(g489
g2
Ntp4870
Rp4871
(dp4872
g14
I00
sg29
I01
sg46
F367000000.0
sg15
I00
sbsbsg4767
g0
(g250
g2
Ntp4873
Rp4874
(dp4875
g14
I00
sg29
I01
sg46
I01
sg15
I00
sbsg11
(lp4876
g4710
ag4714
ag4718
ag4772
ag4727
ag4732
ag4737
ag4767
ag4722
ag4773
ag4774
ag4775
ag4776
asg4772
g0
(g489
g2
Ntp4877
Rp4878
(dp4879
g14
I00
sg29
I01
sg46
F44.0
sg15
I00
sbsg4773
g0
(g489
g2
Ntp4880
Rp4881
(dp4882
g14
I00
sg29
I01
sg46
F17.3
sg15
I00
sbsg4774
g0
(g143
g2
Ntp4883
Rp4884
(dp4885
g14
I00
sg29
I01
sg46
I203
sg15
I00
sbsg4775
g0
(g4624
g20
(lp4886
I0
atp4887
Rp4888
(dp4889
g14
I00
sg29
I01
sg15
I00
sbsg4776
g0
(g4624
g20
(lp4890
F0.0004393673110720562
atp4891
Rp4892
(dp4893
g14
I00
sg29
I01
sg15
I00
sbsbsg32
S'HcalHardcodeCalibrations'
p4894
sg4800
g0
(g250
g2
Ntp4895
Rp4896
(dp4897
g14
I00
sg29
I01
sg46
I00
sg15
I00
sbsg4801
g0
(g489
g2
Ntp4898
Rp4899
(dp4900
g14
I00
sg29
I01
sg46
F-1.0
sg15
I00
sbsg4802
g0
(g250
g2
Ntp4901
Rp4902
(dp4903
g14
I00
sg29
I01
sg46
I00
sg15
I00
sbsg4803
g0
(g4701
g2
Ntp4904
Rp4905
(dp4906
g14
I00
sg29
I01
sg46
S'CalibCalorimetry/HcalPlugins/data/meanenergiesHB.txt'
p4907
sg15
I00
sbsg4795
g0
(g19
g20
(lp4908
S'GainWidths'
p4909
atp4910
Rp4911
(dp4912
g14
I00
sg29
I00
sg15
I00
sg30
I1
sbsg4804
g0
(g250
g2
Ntp4913
Rp4914
(dp4915
g14
I00
sg29
I01
sg46
I00
sg15
I00
sbsg4805
g0
(g489
g2
Ntp4916
Rp4917
(dp4918
g14
I00
sg29
I01
sg46
F20.0
sg15
I00
sbsg4806
g0
(g250
g2
Ntp4919
Rp4920
(dp4921
g14
I00
sg29
I01
sg46
I00
sg15
I00
sbsg4807
g0
(g424
g2
Ntp4922
Rp4923
(dp4924
g14
I00
sg29
I01
sg4710
g0
(g143
g2
Ntp4925
Rp4926
(dp4927
g14
I00
sg29
I01
sg46
I0
sg15
I00
sbsg15
I00
sg4714
g0
(g489
g2
Ntp4928
Rp4929
(dp4930
g14
I00
sg29
I01
sg46
F0.6285
sg15
I00
sbsg4718
g0
(g143
g2
Ntp4931
Rp4932
(dp4933
g14
I00
sg29
I01
sg46
I201
sg15
I00
sbsg4722
g0
(g4624
g20
(lp4934
F0.0
atp4935
Rp4936
(dp4937
g14
I00
sg29
I01
sg15
I00
sbsg4727
g0
(g4624
g20
(lp4938
F-0.44
aF1.4
aF7.1
aF38.5
atp4939
Rp4940
(dp4941
g14
I00
sg29
I01
sg15
I00
sbsg4732
g0
(g4624
g20
(lp4942
F0.907
aF0.915
aF0.92
aF0.921
atp4943
Rp4944
(dp4945
g14
I00
sg29
I01
sg15
I00
sbsg4776
g0
(g4624
g20
(lp4946
F0.006
aF0.0087
atp4947
Rp4948
(dp4949
g14
I00
sg29
I01
sg15
I00
sbsg4767
g0
(g250
g2
Ntp4950
Rp4951
(dp4952
g14
I00
sg29
I01
sg46
I00
sg15
I00
sbsg11
(lp4953
g4710
ag4714
ag4718
ag4772
ag4727
ag4732
ag4776
ag4767
ag4722
ag4773
ag4774
ag4775
asg4772
g0
(g489
g2
Ntp4954
Rp4955
(dp4956
g14
I00
sg29
I01
sg46
F4.0
sg15
I00
sbsg4773
g0
(g489
g2
Ntp4957
Rp4958
(dp4959
g14
I00
sg29
I01
sg46
F12.06
sg15
I00
sbsg4774
g0
(g143
g2
Ntp4960
Rp4961
(dp4962
g14
I00
sg29
I01
sg46
I201
sg15
I00
sbsg4775
g0
(g4624
g20
(lp4963
F0.0
aF0.0
atp4964
Rp4965
(dp4966
g14
I00
sg29
I01
sg15
I00
sbsbsg4808
g0
(g424
g2
Ntp4967
Rp4968
(dp4969
g14
I00
sg29
I01
sg4710
g0
(g143
g2
Ntp4970
Rp4971
(dp4972
g14
I00
sg29
I01
sg46
I0
sg15
I00
sbsg15
I00
sg4714
g0
(g489
g2
Ntp4973
Rp4974
(dp4975
g14
I00
sg29
I01
sg46
F0.809
sg15
I00
sbsg4718
g0
(g143
g2
Ntp4976
Rp4977
(dp4978
g14
I00
sg29
I01
sg46
I105
sg15
I00
sbsg4722
g0
(g4624
g20
(lp4979
F0.0
atp4980
Rp4981
(dp4982
g14
I00
sg29
I01
sg15
I00
sbsg4727
g0
(g4624
g20
(lp4983
F-0.49
aF1.8
aF7.2
aF37.9
atp4984
Rp4985
(dp4986
g14
I00
sg29
I01
sg15
I00
sbsg4732
g0
(g4624
g20
(lp4987
F0.912
aF0.917
aF0.922
aF0.923
atp4988
Rp4989
(dp4990
g14
I00
sg29
I01
sg15
I00
sbsg4776
g0
(g4624
g20
(lp4991
F0.19
atp4992
Rp4993
(dp4994
g14
I00
sg29
I01
sg15
I00
sbsg4767
g0
(g250
g2
Ntp4995
Rp4996
(dp4997
g14
I00
sg29
I01
sg46
I00
sg15
I00
sbsg11
(lp4998
g4710
ag4714
ag4718
ag4772
ag4727
ag4732
ag4776
ag4767
ag4722
ag4773
ag4774
ag4775
asg4772
g0
(g489
g2
Ntp4999
Rp5000
(dp5001
g14
I00
sg29
I01
sg46
F0.3305
sg15
I00
sbsg4773
g0
(g489
g2
Ntp5002
Rp5003
(dp5004
g14
I00
sg29
I01
sg46
F3.285
sg15
I00
sbsg4774
g0
(g143
g2
Ntp5005
Rp5006
(dp5007
g14
I00
sg29
I01
sg46
I125
sg15
I00
sbsg4775
g0
(g4624
g20
(lp5008
F0.0
atp5009
Rp5010
(dp5011
g14
I00
sg29
I01
sg15
I00
sbsbsg4809
g0
(g424
g2
Ntp5012
Rp5013
(dp5014
g14
I00
sg29
I01
sg4710
g0
(g143
g2
Ntp5015
Rp5016
(dp5017
g14
I00
sg29
I01
sg46
I0
sg15
I00
sbsg15
I00
sg4714
g0
(g489
g2
Ntp5018
Rp5019
(dp5020
g14
I00
sg29
I01
sg46
F2.516
sg15
I00
sbsg4718
g0
(g143
g2
Ntp5021
Rp5022
(dp5023
g14
I00
sg29
I01
sg46
I301
sg15
I00
sbsg4722
g0
(g4624
g20
(lp5024
F0.0
atp5025
Rp5026
(dp5027
g14
I00
sg29
I01
sg15
I00
sbsg4727
g0
(g4624
g20
(lp5028
F-0.87
aF1.4
aF7.8
aF-29.6
atp5029
Rp5030
(dp5031
g14
I00
sg29
I01
sg15
I00
sbsg4732
g0
(g4624
g20
(lp5032
F0.359
aF0.358
aF0.36
aF0.367
atp5033
Rp5034
(dp5035
g14
I00
sg29
I01
sg15
I00
sbsg4776
g0
(g4624
g20
(lp5036
F0.14
aF0.135
atp5037
Rp5038
(dp5039
g14
I00
sg29
I01
sg15
I00
sbsg4767
g0
(g250
g2
Ntp5040
Rp5041
(dp5042
g14
I00
sg29
I01
sg46
I00
sg15
I00
sbsg11
(lp5043
g4710
ag4714
ag4718
ag4772
ag4727
ag4732
ag4776
ag4767
ag4722
ag4773
ag4774
ag4775
asg4772
g0
(g489
g2
Ntp5044
Rp5045
(dp5046
g14
I00
sg29
I01
sg46
F0.0
sg15
I00
sbsg4773
g0
(g489
g2
Ntp5047
Rp5048
(dp5049
g14
I00
sg29
I01
sg46
F9.354
sg15
I00
sbsg4774
g0
(g143
g2
Ntp5050
Rp5051
(dp5052
g14
I00
sg29
I01
sg46
I301
sg15
I00
sbsg4775
g0
(g4624
g20
(lp5053
F0.0
aF0.0
atp5054
Rp5055
(dp5056
g14
I00
sg29
I01
sg15
I00
sbsbsg4810
g0
(g424
g2
Ntp5057
Rp5058
(dp5059
g14
I00
sg29
I01
sg4710
g0
(g143
g2
Ntp5060
Rp5061
(dp5062
g14
I00
sg29
I01
sg46
I0
sg15
I00
sbsg15
I00
sg4714
g0
(g489
g2
Ntp5063
Rp5064
(dp5065
g14
I00
sg29
I01
sg46
F0.9698
sg15
I00
sbsg4718
g0
(g143
g2
Ntp5066
Rp5067
(dp5068
g14
I00
sg29
I01
sg46
I105
sg15
I00
sbsg4722
g0
(g4624
g20
(lp5069
F0.0
atp5070
Rp5071
(dp5072
g14
I00
sg29
I01
sg15
I00
sbsg4727
g0
(g4624
g20
(lp5073
F-0.38
aF2.0
aF7.6
aF39.6
atp5074
Rp5075
(dp5076
g14
I00
sg29
I01
sg15
I00
sbsg4732
g0
(g4624
g20
(lp5077
F0.912
aF0.916
aF0.92
aF0.922
atp5078
Rp5079
(dp5080
g14
I00
sg29
I01
sg15
I00
sbsg4776
g0
(g4624
g20
(lp5081
F0.23
atp5082
Rp5083
(dp5084
g14
I00
sg29
I01
sg15
I00
sbsg4767
g0
(g250
g2
Ntp5085
Rp5086
(dp5087
g14
I00
sg29
I01
sg46
I00
sg15
I00
sbsg11
(lp5088
g4710
ag4714
ag4718
ag4772
ag4727
ag4732
ag4776
ag4767
ag4722
ag4773
ag4774
ag4775
asg4772
g0
(g489
g2
Ntp5089
Rp5090
(dp5091
g14
I00
sg29
I01
sg46
F0.3305
sg15
I00
sbsg4773
g0
(g489
g2
Ntp5092
Rp5093
(dp5094
g14
I00
sg29
I01
sg46
F3.163
sg15
I00
sbsg4774
g0
(g143
g2
Ntp5095
Rp5096
(dp5097
g14
I00
sg29
I01
sg46
I125
sg15
I00
sbsg4775
g0
(g4624
g20
(lp5098
I0
atp5099
Rp5100
(dp5101
g14
I00
sg29
I01
sg15
I00
sbsbsg15
I00
sg4811
g0
(g250
g2
Ntp5102
Rp5103
(dp5104
g14
I00
sg29
I01
sg46
I00
sg15
I00
sbsg4812
g0
(g250
g2
Ntp5105
Rp5106
(dp5107
g14
I00
sg29
I01
sg46
I00
sg15
I00
sbsg4813
g0
(g489
g2
Ntp5108
Rp5109
(dp5110
g14
I00
sg29
I01
sg46
F20.0
sg15
I00
sbsg4814
g0
(g1475
g20
(lp5111
g0
(g424
g2
Ntp5112
Rp5113
(dp5114
g14
I00
sg29
I01
sg15
I00
sS'crosstalk'
p5115
g0
(g489
g2
Ntp5116
Rp5117
(dp5118
g14
I00
sg29
I01
sg46
F0.0
sg15
I00
sbsS'nonlin1'
p5119
g0
(g489
g2
Ntp5120
Rp5121
(dp5122
g14
I00
sg29
I01
sg46
F1.0
sg15
I00
sbsS'nonlin3'
p5123
g0
(g489
g2
Ntp5124
Rp5125
(dp5126
g14
I00
sg29
I01
sg46
F0.0
sg15
I00
sbsS'nonlin2'
p5127
g0
(g489
g2
Ntp5128
Rp5129
(dp5130
g14
I00
sg29
I01
sg46
F0.0
sg15
I00
sbsg11
(lp5131
g5119
ag5123
ag5127
aS'pixels'
p5132
ag5115
asg5132
g0
(g143
g2
Ntp5133
Rp5134
(dp5135
g14
I00
sg29
I01
sg46
I36000
sg15
I00
sbsbag0
(g424
g2
Ntp5136
Rp5137
(dp5138
g14
I00
sg29
I01
sg15
I00
sg5115
g0
(g489
g2
Ntp5139
Rp5140
(dp5141
g14
I00
sg29
I01
sg46
F0.0
sg15
I00
sbsg5119
g0
(g489
g2
Ntp5142
Rp5143
(dp5144
g14
I00
sg29
I01
sg46
F1.0
sg15
I00
sbsg5123
g0
(g489
g2
Ntp5145
Rp5146
(dp5147
g14
I00
sg29
I01
sg46
F0.0
sg15
I00
sbsg5127
g0
(g489
g2
Ntp5148
Rp5149
(dp5150
g14
I00
sg29
I01
sg46
F0.0
sg15
I00
sbsg11
(lp5151
g5119
ag5123
ag5127
ag5132
ag5115
asg5132
g0
(g143
g2
Ntp5152
Rp5153
(dp5154
g14
I00
sg29
I01
sg46
I2500
sg15
I00
sbsbag0
(g424
g2
Ntp5155
Rp5156
(dp5157
g14
I00
sg29
I01
sg15
I00
sg5115
g0
(g489
g2
Ntp5158
Rp5159
(dp5160
g14
I00
sg29
I01
sg46
F0.17
sg15
I00
sbsg5119
g0
(g489
g2
Ntp5161
Rp5162
(dp5163
g14
I00
sg29
I01
sg46
F1.00985
sg15
I00
sbsg5123
g0
(g489
g2
Ntp5164
Rp5165
(dp5166
g14
I00
sg29
I01
sg46
F2.86282e-10
sg15
I00
sbsg5127
g0
(g489
g2
Ntp5167
Rp5168
(dp5169
g14
I00
sg29
I01
sg46
F7.84089e-06
sg15
I00
sbsg11
(lp5170
g5119
ag5123
ag5127
ag5132
ag5115
asg5132
g0
(g143
g2
Ntp5171
Rp5172
(dp5173
g14
I00
sg29
I01
sg46
I27370
sg15
I00
sbsbag0
(g424
g2
Ntp5174
Rp5175
(dp5176
g14
I00
sg29
I01
sg15
I00
sg5115
g0
(g489
g2
Ntp5177
Rp5178
(dp5179
g14
I00
sg29
I01
sg46
F0.196
sg15
I00
sbsg5119
g0
(g489
g2
Ntp5180
Rp5181
(dp5182
g14
I00
sg29
I01
sg46
F1.00546
sg15
I00
sbsg5123
g0
(g489
g2
Ntp5183
Rp5184
(dp5185
g14
I00
sg29
I01
sg46
F1.27011e-10
sg15
I00
sbsg5127
g0
(g489
g2
Ntp5186
Rp5187
(dp5188
g14
I00
sg29
I01
sg46
F6.40239e-06
sg15
I00
sbsg11
(lp5189
g5119
ag5123
ag5127
ag5132
ag5115
asg5132
g0
(g143
g2
Ntp5190
Rp5191
(dp5192
g14
I00
sg29
I01
sg46
I38018
sg15
I00
sbsbag0
(g424
g2
Ntp5193
Rp5194
(dp5195
g14
I00
sg29
I01
sg15
I00
sg5115
g0
(g489
g2
Ntp5196
Rp5197
(dp5198
g14
I00
sg29
I01
sg46
F0.17
sg15
I00
sbsg5119
g0
(g489
g2
Ntp5199
Rp5200
(dp5201
g14
I00
sg29
I01
sg46
F1.00985
sg15
I00
sbsg5123
g0
(g489
g2
Ntp5202
Rp5203
(dp5204
g14
I00
sg29
I01
sg46
F2.86282e-10
sg15
I00
sbsg5127
g0
(g489
g2
Ntp5205
Rp5206
(dp5207
g14
I00
sg29
I01
sg46
F7.84089e-06
sg15
I00
sbsg11
(lp5208
g5119
ag5123
ag5127
ag5132
ag5115
asg5132
g0
(g143
g2
Ntp5209
Rp5210
(dp5211
g14
I00
sg29
I01
sg46
I27370
sg15
I00
sbsbag0
(g424
g2
Ntp5212
Rp5213
(dp5214
g14
I00
sg29
I01
sg15
I00
sg5115
g0
(g489
g2
Ntp5215
Rp5216
(dp5217
g14
I00
sg29
I01
sg46
F0.196
sg15
I00
sbsg5119
g0
(g489
g2
Ntp5218
Rp5219
(dp5220
g14
I00
sg29
I01
sg46
F1.00546
sg15
I00
sbsg5123
g0
(g489
g2
Ntp5221
Rp5222
(dp5223
g14
I00
sg29
I01
sg46
F1.27011e-10
sg15
I00
sbsg5127
g0
(g489
g2
Ntp5224
Rp5225
(dp5226
g14
I00
sg29
I01
sg46
F6.40239e-06
sg15
I00
sbsg11
(lp5227
g5119
ag5123
ag5127
ag5132
ag5115
asg5132
g0
(g143
g2
Ntp5228
Rp5229
(dp5230
g14
I00
sg29
I01
sg46
I38018
sg15
I00
sbsbag0
(g424
g2
Ntp5231
Rp5232
(dp5233
g14
I00
sg29
I01
sg15
I00
sg5115
g0
(g489
g2
Ntp5234
Rp5235
(dp5236
g14
I00
sg29
I01
sg46
F0.0
sg15
I00
sbsg5119
g0
(g489
g2
Ntp5237
Rp5238
(dp5239
g14
I00
sg29
I01
sg46
F1.0
sg15
I00
sbsg5123
g0
(g489
g2
Ntp5240
Rp5241
(dp5242
g14
I00
sg29
I01
sg46
F0.0
sg15
I00
sbsg5127
g0
(g489
g2
Ntp5243
Rp5244
(dp5245
g14
I00
sg29
I01
sg46
F0.0
sg15
I00
sbsg11
(lp5246
g5119
ag5123
ag5127
ag5132
ag5115
asg5132
g0
(g143
g2
Ntp5247
Rp5248
(dp5249
g14
I00
sg29
I01
sg46
I0
sg15
I00
sbsbatp5250
Rp5251
(dp5252
g14
I00
sg29
I01
sg15
I00
sg30
I1
sbsg31
S'es_hardcode'
p5253
sg4815
g0
(g424
g2
Ntp5254
Rp5255
(dp5256
g14
I00
sg29
I01
sg4710
g0
(g143
g2
Ntp5257
Rp5258
(dp5259
g14
I00
sg29
I01
sg46
I1
sg15
I00
sbsg15
I00
sg4714
g0
(g489
g2
Ntp5260
Rp5261
(dp5262
g14
I00
sg29
I01
sg46
F3.33
sg15
I00
sbsg4718
g0
(g143
g2
Ntp5263
Rp5264
(dp5265
g14
I00
sg29
I01
sg46
I301
sg15
I00
sbsg4722
g0
(g4624
g20
(lp5266
F0.0
atp5267
Rp5268
(dp5269
g14
I00
sg29
I01
sg15
I00
sbsg4727
g0
(g4624
g20
(lp5270
F0.0697
aF-0.7405
aF12.38
aF-671.9
atp5271
Rp5272
(dp5273
g14
I00
sg29
I01
sg15
I00
sbsg4732
g0
(g4624
g20
(lp5274
F0.297
aF0.298
aF0.298
aF0.313
atp5275
Rp5276
(dp5277
g14
I00
sg29
I01
sg15
I00
sbsg4776
g0
(g4624
g20
(lp5278
F0.14
aF0.135
atp5279
Rp5280
(dp5281
g14
I00
sg29
I01
sg15
I00
sbsg4767
g0
(g250
g2
Ntp5282
Rp5283
(dp5284
g14
I00
sg29
I01
sg46
I00
sg15
I00
sbsg11
(lp5285
g4710
ag4714
ag4718
ag4772
ag4727
ag4732
ag4776
ag4767
ag4722
ag4773
ag4774
ag4775
asg4772
g0
(g489
g2
Ntp5286
Rp5287
(dp5288
g14
I00
sg29
I01
sg46
F0.0
sg15
I00
sbsg4773
g0
(g489
g2
Ntp5289
Rp5290
(dp5291
g14
I00
sg29
I01
sg46
F13.33
sg15
I00
sbsg4774
g0
(g143
g2
Ntp5292
Rp5293
(dp5294
g14
I00
sg29
I01
sg46
I301
sg15
I00
sbsg4775
g0
(g4624
g20
(lp5295
F0.0
aF0.0
atp5296
Rp5297
(dp5298
g14
I00
sg29
I01
sg15
I00
sbsbsbsI140454445748304
g1584
sI140454446154000
g3632
sI140454446031248
g1338
sI140454446155856
g965
sI140454446097360
g3308
sI140454446032400
g2192
sI140454446330832
g1992
sI140454445958672
g1749
sI140454446462928
g3143
sI140454446031632
g3750
sI140454446033296
g2571
sI140454446316240
g4484
sI140454445751376
g481
sI140454446415056
g3725
sI140454446009936
g1738
sI140454446099856
g3028
sI140454446317264
g3542
sI140454446059280
g3362
sI140454446414096
g2992
sI140454446464976
g1938
sI140454446153936
g2675
sI140454446096720
g4528
sI140454446436880
g2489
sI140454446056144
g1235
sI140454446330768
g4255
sI140454446007248
g1102
sI140454446154960
g2013
sI140454446098064
g4506
sI140454446302672
g4238
sI140454446057168
g2156
sI140454446676112
g4661
sI140454446155984
g4649
sI140454446033232
g2961
sI140454446438928
g4064
sI140454445988496
g2516
sI140454446058192
g2147
sI140454445960400
g3950
sI140454445987536
g94
sI140454446314832
g1063
sI140454446317200
g3399
sI140454446059216
g933
sI140454446316880
g1963
sI140454446463952
g1401
sI140454446010320
g2749
sI140454446411856
g4555
sI140454446153872
g4458
sI140454446096656
g4118
sI140454446461904
g3663
sI140454445986384
g3222
sI140454446518992
g0
(g4684
g2
Ntp5299
Rp5300
(dp5301
g11
(lp5302
S'DBParameters'
p5303
aS'connect'
p5304
aS'globaltag'
p5305
aS'RefreshEachRun'
p5306
aS'pfnPrefix'
p5307
aS'snapshotTime'
p5308
ag4795
aS'pfnPostfix'
p5309
aS'RefreshAlways'
p5310
aS'ReconnectEachRun'
p5311
aS'RefreshOpenIOVs'
p5312
aS'DumpStat'
p5313
asg14
I00
sg17
S'/cvmfs/cms.cern.ch/slc6_amd64_gcc630/cms/cmssw/CMSSW_9_4_2/python/CondCore/ESSources/CondDBESSource_cfi.py'
p5314
sg15
I01
sg5305
g0
(g42
g2
Ntp5315
Rp5316
(dp5317
g14
I00
sg29
I01
sg46
S'92X_dataRun2_Prompt_v8'
p5318
sg15
I01
sbsg5306
g0
(g250
g2
Ntp5319
Rp5320
(dp5321
g14
I00
sg29
I00
sg46
I00
sg15
I00
sbsg5307
g0
(g42
g2
Ntp5322
Rp5323
(dp5324
g14
I00
sg29
I00
sg46
g60
sg15
I00
sbsg5308
g0
(g42
g2
Ntp5325
Rp5326
(dp5327
g14
I00
sg29
I01
sg46
g60
sg15
I00
sbsg4795
g0
(g1475
g20
(lp5328
tp5329
Rp5330
(dp5331
g14
I00
sg29
I01
sg15
I00
sg30
I1
sbsg5309
g0
(g42
g2
Ntp5332
Rp5333
(dp5334
g14
I00
sg29
I00
sg46
g60
sg15
I00
sbsg5303
g0
(g424
g2
Ntp5335
Rp5336
(dp5337
g14
I00
sg29
I01
sS'authenticationPath'
p5338
g0
(g42
g2
Ntp5339
Rp5340
(dp5341
g14
I00
sg29
I00
sg46
g60
sg15
I00
sbsg15
I00
sS'messageLevel'
p5342
g0
(g143
g2
Ntp5343
Rp5344
(dp5345
g14
I00
sg29
I00
sg46
I0
sg15
I00
sbsg11
(lp5346
g5342
aS'security'
p5347
aS'authenticationSystem'
p5348
ag5338
asg5347
g0
(g42
g2
Ntp5349
Rp5350
(dp5351
g14
I00
sg29
I00
sg46
g60
sg15
I00
sbsg5348
g0
(g143
g2
Ntp5352
Rp5353
(dp5354
g14
I00
sg29
I00
sg46
I0
sg15
I00
sbsbsg5310
g0
(g250
g2
Ntp5355
Rp5356
(dp5357
g14
I00
sg29
I00
sg46
I00
sg15
I00
sbsg16
I19
sg5304
g0
(g42
g2
Ntp5358
Rp5359
(dp5360
g14
I00
sg29
I01
sg46
S'frontier://FrontierProd/CMS_CONDITIONS'
p5361
sg15
I00
sbsg5311
g0
(g250
g2
Ntp5362
Rp5363
(dp5364
g14
I00
sg29
I00
sg46
I00
sg15
I00
sbsg31
S'GlobalTag'
p5365
sg5312
g0
(g250
g2
Ntp5366
Rp5367
(dp5368
g14
I00
sg29
I00
sg46
I00
sg15
I00
sbsg5313
g0
(g250
g2
Ntp5369
Rp5370
(dp5371
g14
I00
sg29
I00
sg46
I00
sg15
I00
sbsg32
S'PoolDBESSource'
p5372
sbsI140454446330704
g2328
sI140454446154896
g4203
sI140454445957328
g1292
sI140454446097680
g2419
sI140454446057232
g1379
sI140454446302608
g134
sI140454446057104
g4127
sI140454446331728
g3859
sI140454446008208
g2388
sI140454446098704
g3009
sI140454446058128
g158
sI140454446099728
g306
sI140454446415696
g1036
sI140454446304656
g3509
sI140454446317136
g1390
sI140454446059152
g845
sI140454446608016
g0
(cFWCore.ParameterSet.Modules
ESPrefer
p5373
g2
Ntp5374
Rp5375
(dp5376
g11
(lp5377
sg14
I00
sg15
I00
sS'_targetLabel'
p5378
g5253
sg16
I88
sg17
g18
sg31
S'es_prefer_hcalHardcode'
p5379
sg32
g4894
sbsI140454446153808
g648
sI140454446031056
g2835
sI140454446033680
g4077
sI140454446330640
g4411
sI140454446273424
g972
sI140454446645200
g672
sI140454446412816
g3184
sI140454446154832
g1446
sI140454446097616
g955
sI140454446315408
g1785
sI140454445987344
g833
sI140454446057040
g3157
sI140454445959248
g2892
sI140454445957520
g2941
sI140454446098640
g4612
sI140454446058064
g3176
sI140454446332688
g3824
sI140454446009168
g2982
sI140454446156880
g1629
sI140454446099664
g2827
sI140454446413776
g3960
sI140454446439824
g2113
sI140454446317072
g3771
sI140454446059088
g823
sI140454446097744
g4221
sI140454446096528
g3317
sI140454446461648
g3294
sI140454446007056
g2127
ssg4201
g4203
sg2619
g4238
sg4276
g4278
sg22
g4295
sg652
g4308
sg2311
g4330
sg2461
g2463
sg4358
g4360
sg1384
g2787
sg3062
g3064
sg4409
g4411
sg939
g4447
sg4456
g4458
sg1230
g1918
sg926
g3750
sS'_Process__filters'
p5380
(dp5381
sg1228
g1938
sg4143
g4145
sg1287
g4555
sg1736
g1738
sg806
g1749
sS'_Process__sequences'
p5382
(dp5383
g1581
g1584
sg4647
g4649
ssg1794
g1796
sg1814
g1816
sg1841
g1843
sg2304
g2306
sg2767
g2769
sg1890
g1892
sg1947
g1949
sg1961
g1963
sg2107
g2571
sg925
g4571
sg2039
g2041
sg2054
g2056
sg3675
g3677
sg2063
g2065
sg2072
g2074
sg2163
g2165
sg2182
g2184
sg2201
g2203
sg113
g2211
sS'_Process__producers'
p5384
(dp5385
g1611
g1591
sg1643
g1629
sg362
g330
sg409
g383
sg992
g972
ssg5365
g5300
sg2344
g2346
sS'MessageLogger'
p5386
g0
(cFWCore.ParameterSet.Modules
Service
p5387
g2
Ntp5388
Rp5389
(dp5390
g14
I00
sS'suppressInfo'
p5391
g0
(g19
g20
(lp5392
tp5393
Rp5394
(dp5395
g14
I00
sg29
I00
sg15
I00
sg30
I1
sbsS'suppressDebug'
p5396
g0
(g19
g20
(lp5397
tp5398
Rp5399
(dp5400
g14
I00
sg29
I00
sg15
I00
sg30
I1
sbsS'cout'
p5401
g0
(g424
g2
Ntp5402
Rp5403
(dp5404
g14
I00
sg29
I00
sS'placeholder'
p5405
g0
(g250
g2
Ntp5406
Rp5407
(dp5408
g14
I00
sg29
I00
sg46
I01
sg15
I00
sbsg15
I00
sg11
(lp5409
g5405
asbsg16
I10
sS'debugModules'
p5410
g0
(g19
g20
(lp5411
tp5412
Rp5413
(dp5414
g14
I00
sg29
I00
sg15
I00
sg30
I1
sbsg32
g5386
sS'fwkJobReports'
p5415
g0
(g19
g20
(lp5416
S'FrameworkJobReport'
p5417
atp5418
Rp5419
(dp5420
g14
I00
sg29
I00
sg15
I00
sg30
I1
sbsg11
(lp5421
g5391
aS'debugs'
p5422
ag5396
ag5401
aS'cerr_stats'
p5423
aS'warnings'
p5424
aS'default'
p5425
aS'statistics'
p5426
aS'cerr'
p5427
ag5417
aS'suppressWarning'
p5428
aS'errors'
p5429
aS'destinations'
p5430
ag5410
aS'infos'
p5431
aS'categories'
p5432
ag5415
asg5426
g0
(g19
g20
(lp5433
g5423
atp5434
Rp5435
(dp5436
g14
I00
sg29
I00
sg15
I00
sg30
I1
sbsg17
g18
sg5430
g0
(g19
g20
(lp5437
g5424
ag5429
ag5431
ag5422
ag5401
ag5427
atp5438
Rp5439
(dp5440
g14
I00
sg29
I00
sg15
I00
sg30
I1
sbsg5422
g0
(g424
g2
Ntp5441
Rp5442
(dp5443
g14
I00
sg29
I00
sg5405
g0
(g250
g2
Ntp5444
Rp5445
(dp5446
g14
I00
sg29
I00
sg46
I01
sg15
I00
sbsg15
I00
sg11
(lp5447
g5405
asbsg5424
g0
(g424
g2
Ntp5448
Rp5449
(dp5450
g14
I00
sg29
I00
sg5405
g0
(g250
g2
Ntp5451
Rp5452
(dp5453
g14
I00
sg29
I00
sg46
I01
sg15
I00
sbsg15
I00
sg11
(lp5454
g5405
asbsg5429
g0
(g424
g2
Ntp5455
Rp5456
(dp5457
g14
I00
sg29
I00
sg5405
g0
(g250
g2
Ntp5458
Rp5459
(dp5460
g14
I00
sg29
I00
sg46
I01
sg15
I00
sbsg15
I00
sg11
(lp5461
g5405
asbsg5417
g0
(g424
g2
Ntp5462
Rp5463
(dp5464
g14
I00
sg29
I00
sg15
I00
sg5425
g0
(g424
g2
Ntp5465
Rp5466
(dp5467
g14
I00
sg29
I00
sS'limit'
p5468
g0
(g143
g2
Ntp5469
Rp5470
(dp5471
g14
I00
sg29
I00
sg46
I0
sg15
I00
sbsg15
I00
sg11
(lp5472
g5468
asbsS'FwkJob'
p5473
g0
(g424
g2
Ntp5474
Rp5475
(dp5476
g14
I00
sg29
I00
sg15
I00
sg5468
g0
(g143
g2
Ntp5477
Rp5478
(dp5479
g14
I00
sg29
I00
sg46
I10000000
sg15
I00
sbsg11
(lp5480
S'optionalPSet'
p5481
ag5468
asg5481
g0
(g250
g2
Ntp5482
Rp5483
(dp5484
g14
I00
sg29
I00
sg46
I01
sg15
I00
sbsbsg11
(lp5485
g5425
ag5481
ag5473
asg5481
g0
(g250
g2
Ntp5486
Rp5487
(dp5488
g14
I00
sg29
I00
sg46
I01
sg15
I00
sbsbsg5428
g0
(g19
g20
(lp5489
tp5490
Rp5491
(dp5492
g14
I00
sg29
I00
sg15
I00
sg30
I1
sbsg5431
g0
(g424
g2
Ntp5493
Rp5494
(dp5495
g14
I00
sg29
I00
sg15
I00
sS'Root_NoDictionary'
p5496
g0
(g424
g2
Ntp5497
Rp5498
(dp5499
g14
I00
sg29
I00
sg15
I00
sg5468
g0
(g143
g2
Ntp5500
Rp5501
(dp5502
g14
I00
sg29
I00
sg46
I0
sg15
I00
sbsg11
(lp5503
g5481
ag5468
asg5481
g0
(g250
g2
Ntp5504
Rp5505
(dp5506
g14
I00
sg29
I00
sg46
I01
sg15
I00
sbsbsg11
(lp5507
g5481
ag5496
ag5405
asg5481
g0
(g250
g2
Ntp5508
Rp5509
(dp5510
g14
I00
sg29
I00
sg46
I01
sg15
I00
sbsg5405
g0
(g250
g2
Ntp5511
Rp5512
(dp5513
g14
I00
sg29
I00
sg46
I01
sg15
I00
sbsbsg5432
g0
(g19
g20
(lp5514
g5473
aS'FwkReport'
p5515
aS'FwkSummary'
p5516
ag5496
atp5517
Rp5518
(dp5519
g14
I00
sg29
I00
sg15
I00
sg30
I1
sbsg15
I00
sg5423
g0
(g424
g2
Ntp5520
Rp5521
(dp5522
g14
I00
sg29
I00
sg15
I00
sg5481
g0
(g250
g2
Ntp5523
Rp5524
(dp5525
g14
I00
sg29
I00
sg46
I01
sg15
I00
sbsg11
(lp5526
S'threshold'
p5527
aS'output'
p5528
ag5481
asg5527
g0
(g42
g2
Ntp5529
Rp5530
(dp5531
g14
I00
sg29
I00
sg46
S'WARNING'
p5532
sg15
I00
sbsg5528
g0
(g42
g2
Ntp5533
Rp5534
(dp5535
g14
I00
sg29
I00
sg46
g5427
sg15
I00
sbsbsg5425
g0
(g424
g2
Ntp5536
Rp5537
(dp5538
g14
I00
sg29
I00
sg15
I00
sg11
(lp5539
sbsS'_inProcess'
p5540
I01
sg5427
g0
(g424
g2
Ntp5541
Rp5542
(dp5543
g14
I00
sg29
I00
sS'noTimeStamps'
p5544
g0
(g250
g2
Ntp5545
Rp5546
(dp5547
g14
I00
sg29
I00
sg46
I00
sg15
I00
sbsg5515
g0
(g424
g2
Ntp5548
Rp5549
(dp5550
g14
I00
sg29
I00
sg15
I01
sS'reportEvery'
p5551
g0
(g143
g2
Ntp5552
Rp5553
(dp5554
g14
I00
sg29
I00
sg46
I1000
sg15
I01
sbsg5468
g0
(g143
g2
Ntp5555
Rp5556
(dp5557
g14
I00
sg29
I00
sg46
I10000000
sg15
I00
sbsg11
(lp5558
g5551
ag5481
ag5468
asg5481
g0
(g250
g2
Ntp5559
Rp5560
(dp5561
g14
I00
sg29
I00
sg46
I01
sg15
I00
sbsbsg15
I00
sg5425
g0
(g424
g2
Ntp5562
Rp5563
(dp5564
g14
I00
sg29
I00
sg5468
g0
(g143
g2
Ntp5565
Rp5566
(dp5567
g14
I00
sg29
I00
sg46
I10000000
sg15
I00
sbsg15
I00
sg11
(lp5568
g5468
asbsg5496
g0
(g424
g2
Ntp5569
Rp5570
(dp5571
g14
I00
sg29
I00
sg15
I00
sg5468
g0
(g143
g2
Ntp5572
Rp5573
(dp5574
g14
I00
sg29
I00
sg46
I0
sg15
I00
sbsg11
(lp5575
g5481
ag5468
asg5481
g0
(g250
g2
Ntp5576
Rp5577
(dp5578
g14
I00
sg29
I00
sg46
I01
sg15
I00
sbsbsS'INFO'
p5579
g0
(g424
g2
Ntp5580
Rp5581
(dp5582
g14
I00
sg29
I00
sg5468
g0
(g143
g2
Ntp5583
Rp5584
(dp5585
g14
I00
sg29
I00
sg46
I0
sg15
I00
sbsg15
I00
sg11
(lp5586
g5468
asbsg5481
g0
(g250
g2
Ntp5587
Rp5588
(dp5589
g14
I00
sg29
I00
sg46
I01
sg15
I00
sbsg5473
g0
(g424
g2
Ntp5590
Rp5591
(dp5592
g14
I00
sg29
I00
sg15
I00
sg5468
g0
(g143
g2
Ntp5593
Rp5594
(dp5595
g14
I00
sg29
I00
sg46
I0
sg15
I00
sbsg11
(lp5596
g5481
ag5468
asg5481
g0
(g250
g2
Ntp5597
Rp5598
(dp5599
g14
I00
sg29
I00
sg46
I01
sg15
I00
sbsbsg5516
g0
(g424
g2
Ntp5600
Rp5601
(dp5602
g14
I00
sg29
I00
sg15
I00
sg5551
g0
(g143
g2
Ntp5603
Rp5604
(dp5605
g14
I00
sg29
I00
sg46
I1
sg15
I00
sbsg5468
g0
(g143
g2
Ntp5606
Rp5607
(dp5608
g14
I00
sg29
I00
sg46
I10000000
sg15
I00
sbsg11
(lp5609
g5551
ag5481
ag5468
asg5481
g0
(g250
g2
Ntp5610
Rp5611
(dp5612
g14
I00
sg29
I00
sg46
I01
sg15
I00
sbsbsg11
(lp5613
g5579
ag5544
ag5515
ag5425
ag5496
ag5527
ag5473
ag5516
ag5481
asg5527
g0
(g42
g2
Ntp5614
Rp5615
(dp5616
g14
I00
sg29
I00
sg46
g5579
sg15
I00
sbsbsbsg2426
g2428
sg2479
g2481
sg2561
g2563
sg2011
g2013
sg2604
g2606
sg880
g2624
sg2633
g2635
sg4382
g4384
sg4134
g4136
sg2172
g2174
sg3007
g3009
sg2709
g2711
sg287
g2777
sg261
g2489
sg1383
g2816
sg2374
g2870
sS'_Process__esprefers'
p5617
(dp5618
g5379
g5375
ssg3199
g3201
sS'_Process__analyzers'
p5619
(dp5620
g577
g481
ssS'_Process__tasks'
p5621
(dp5622
g962
g965
ssS'_Process__paths'
p5623
g0
(cFWCore.ParameterSet.DictTypes
SortedKeysDict
p5624
c__builtin__
dict
p5625
(dp5626
g316
g319
stp5627
Rp5628
(dp5629
S'list'
p5630
(lp5631
g316
asbsg125
g3102
sg3133
g3135
sg2556
g3184
sg1611
g1591
sg3231
g3233
sg2326
g2328
sg851
g2388
sg1174
g3894
sg741
g2845
sg3333
g3335
sg3351
g3353
sg1173
g2992
sg3379
g3381
sS'_Process__essources'
p5632
(dp5633
g5253
g4686
sg5365
g5300
ssg3388
g3390
sg69
g3417
sg3453
g3455
sg3471
g3473
sg3549
g3551
sg3462
g3464
sg3624
g3626
sg3652
g3654
sg1058
g2192
sg593
g3725
sg2417
g2419
sg2658
g3799
sg1643
g1629
sg2310
g3824
sg1801
g3849
sg1097
g3859
sg3940
g3942
sg924
g3950
sg3975
g3977
sg5379
g5375
sg3994
g3996
sS'_Process__aliases'
p5634
(dp5635
sg70
g4153
sg4162
g4164
sg4219
g4221
sg4228
g4230
sg4253
g4255
sg126
g4340
sS'_Process__subProcesses'
p5636
(lp5637
sg577
g481
sg4391
g4393
sg1373
g2961
sS'_Process__schedule'
p5638
Nsg4259
g4484
sg4535
g4537
sS'_Process__partialschedules'
p5639
(dp5640
sg2659
g3165
sg1395
g1785
sg4125
g4127
sS'_Process__source'
p5641
g4671
sg827
g1851
sS'TFileService'
p5642
g0
(g5387
g2
Ntp5643
Rp5644
(dp5645
g11
(lp5646
S'fileName'
p5647
asg14
I00
sg5540
I01
sg15
I00
sg16
I10
sg17
g18
sg5647
g0
(g42
g2
Ntp5648
Rp5649
(dp5650
g14
I00
sg29
I01
sg46
S'flatTree.root'
p5651
sg15
I00
sbsg32
g5642
sbsS'source'
p5652
g4671
sg2000
g2002
sg594
g2021
sg2111
g2113
sg163
g2127
sg2145
g2147
sg2154
g2156
sg1980
g1982
sg1866
g2231
sg2246
g2248
sg2378
g2380
sg3249
g3251
sS'_Process__endpaths'
p5653
g0
(g5624
g5625
(dp5654
tp5655
Rp5656
(dp5657
g5630
(lp5658
sbsg23
g3269
sg2805
g2807
sg4285
g4287
sS'_Process__services'
p5659
(dp5660
g5386
g5389
sg5642
g5644
ssg196
g4064
sg938
g2643
sg4526
g4528
sg1217
g2684
sg1017
g2694
sg4474
g4476
sg4373
g4375
sg4465
g4467
sg185
g2516
sg2882
g2884
sg2679
g2892
sg2368
g2370
sg1227
g2902
sS'_Process__outputmodules'
p5661
(dp5662
sg1886
g2982
sg850
g3931
sg3026
g3028
sg3035
g3037
sg3045
g3047
sg173
g3072
sg1216
g2317
sg1800
g3124
sg3041
g3143
sg3240
g3242
sg2811
g3279
sg3292
g3294
sg3315
g3317
sg2950
g2952
sg3360
g3362
sg3174
g3176
sg3397
g3399
sg4659
g4661
sg5253
g4686
sg1913
g3509
sg162
g3531
sg3540
g3542
sg1018
g4428
sg4610
g4612
sg992
g972
sg2758
g2760
sg186
g3760
sg3778
g3780
sg3306
g3308
sg3814
g3816
sg2825
g2827
sg849
g2941
sg596
g3875
sg311
g3985
sg743
g4077
sg71
g4107
sg4116
g4118
sg2178
g4189
sg4210
g4212
sg4320
g4322
sg3884
g3886
sg4349
g4351
sg1805
g1807
sg112
g2915
sg4400
g4402
sg4418
g4420
sg4437
g4439
sg1394
g2359
sb.